

Microchip Technology PIC18 LITE Macro Assembler V1.35 build -356382666 
                                                                                               Sun Apr 10 20:55:42 2016

Microchip Technology Omniscient Code Generator v1.35 (Free mode) build 201507080246
     1                           	processor	18F2680
     2                           	fnconf	rparam,??,?,0
     3                           	opt	pw 120
     4                           	opt	lm
     5                           	psect	idataCOMRAM,global,class=CODE,delta=1
     6                           	psect	cinit,global,reloc=2,class=CODE,delta=1
     7                           	psect	bitbssCOMRAM,global,bit,class=COMRAM,space=1,delta=1
     8                           	psect	bssCOMRAM,global,class=COMRAM,space=1,delta=1
     9                           	psect	dataCOMRAM,global,class=COMRAM,space=1,delta=1
    10                           	psect	bssBANK0,global,class=BANK0,space=1,delta=1
    11                           	psect	cstackBANK0,global,class=BANK0,space=1,delta=1
    12                           	psect	cstackCOMRAM,global,class=COMRAM,space=1,delta=1
    13                           	psect	text0,global,reloc=2,class=CODE,delta=1
    14                           	psect	text1,global,reloc=2,class=CODE,delta=1
    15                           	psect	text2,global,reloc=2,class=CODE,delta=1
    16                           	psect	text3,global,reloc=2,class=CODE,delta=1
    17                           	psect	text4,global,reloc=2,class=CODE,delta=1
    18                           	psect	text5,global,reloc=2,class=CODE,delta=1
    19                           	psect	text6,global,reloc=2,class=CODE,delta=1
    20                           	psect	text7,global,reloc=2,class=CODE,delta=1
    21                           	psect	intcodelo,global,reloc=2,class=CODE,delta=1
    22                           	psect	text9,global,reloc=2,class=CODE,delta=1
    23                           	psect	text10,global,reloc=2,class=CODE,delta=1
    24                           	psect	intcode,global,reloc=2,class=CODE,delta=1
    25                           	psect	intcode_body,global,reloc=2,class=CODE,delta=1
    26                           	psect	text12,global,reloc=2,class=CODE,delta=1
    27                           	psect	intsave_regs,global,class=BIGRAM,space=1,delta=1
    28                           	psect	rparam,global,class=COMRAM,space=1,delta=1
    29                           	psect	temp,global,ovrld,common,class=COMRAM,space=1,delta=1
    30  0000                     
    31                           	psect	idataCOMRAM
    32  002192                     __pidataCOMRAM:
    33                           	opt stack 0
    34                           
    35                           ;initializer for _delay_quartz_frequency_value
    36  002192  10                 	db	16
    37  0000                     _RXB1CON	set	3920
    38  0000                     _RXB1CONbits	set	3920
    39  0000                     _RXB1D0	set	3926
    40  0000                     _RXB1D1	set	3927
    41  0000                     _RXB1D2	set	3928
    42  0000                     _RXB1D3	set	3929
    43  0000                     _RXB1D4	set	3930
    44  0000                     _RXB1D5	set	3931
    45  0000                     _RXB1D6	set	3932
    46  0000                     _RXB1D7	set	3933
    47  0000                     _RXB1DLC	set	3925
    48  0000                     _RXB1DLCbits	set	3925
    49  0000                     _RXB1EIDH	set	3923
    50  0000                     _RXB1EIDL	set	3924
    51  0000                     _RXB1SIDH	set	3921
    52  0000                     _RXB1SIDL	set	3922
    53  0000                     _RXB1SIDLbits	set	3922
    54  0000                     _RXF0EIDH	set	3842
    55  0000                     _RXF0EIDL	set	3843
    56  0000                     _RXF0SIDH	set	3840
    57  0000                     _RXF0SIDL	set	3841
    58  0000                     _RXF0SIDLbits	set	3841
    59  0000                     _RXF1EIDH	set	3846
    60  0000                     _RXF1EIDL	set	3847
    61  0000                     _RXF1SIDH	set	3844
    62  0000                     _RXF1SIDL	set	3845
    63  0000                     _RXF1SIDLbits	set	3845
    64  0000                     _RXF2EIDH	set	3850
    65  0000                     _RXF2EIDL	set	3851
    66  0000                     _RXF2SIDH	set	3848
    67  0000                     _RXF2SIDL	set	3849
    68  0000                     _RXF2SIDLbits	set	3849
    69  0000                     _RXF3EIDH	set	3854
    70  0000                     _RXF3EIDL	set	3855
    71  0000                     _RXF3SIDH	set	3852
    72  0000                     _RXF3SIDL	set	3853
    73  0000                     _RXF3SIDLbits	set	3853
    74  0000                     _RXF4EIDH	set	3858
    75  0000                     _RXF4EIDL	set	3859
    76  0000                     _RXF4SIDH	set	3856
    77  0000                     _RXF4SIDL	set	3857
    78  0000                     _RXF4SIDLbits	set	3857
    79  0000                     _RXF5EIDH	set	3862
    80  0000                     _RXF5EIDL	set	3863
    81  0000                     _RXF5SIDH	set	3860
    82  0000                     _RXF5SIDL	set	3861
    83  0000                     _RXF5SIDLbits	set	3861
    84  0000                     _RXM0EIDH	set	3866
    85  0000                     _RXM0EIDL	set	3867
    86  0000                     _RXM0SIDH	set	3864
    87  0000                     _RXM0SIDL	set	3865
    88  0000                     _RXM0SIDLbits	set	3865
    89  0000                     _RXM1EIDH	set	3870
    90  0000                     _RXM1EIDL	set	3871
    91  0000                     _RXM1SIDH	set	3868
    92  0000                     _RXM1SIDL	set	3869
    93  0000                     _RXM1SIDLbits	set	3869
    94  0000                     _TXB0CONbits	set	3904
    95  0000                     _TXB0D0	set	3910
    96  0000                     _TXB0D1	set	3911
    97  0000                     _TXB0D2	set	3912
    98  0000                     _TXB0D3	set	3913
    99  0000                     _TXB0D4	set	3914
   100  0000                     _TXB0D5	set	3915
   101  0000                     _TXB0D6	set	3916
   102  0000                     _TXB0D7	set	3917
   103  0000                     _TXB0DLC	set	3909
   104  0000                     _TXB0DLCbits	set	3909
   105  0000                     _TXB0EIDH	set	3907
   106  0000                     _TXB0EIDL	set	3908
   107  0000                     _TXB0SIDH	set	3905
   108  0000                     _TXB0SIDL	set	3906
   109  0000                     _TXB0SIDLbits	set	3906
   110  0000                     _TXB1CONbits	set	3888
   111  0000                     _TXB1D0	set	3894
   112  0000                     _TXB1D1	set	3895
   113  0000                     _TXB1D2	set	3896
   114  0000                     _TXB1D3	set	3897
   115  0000                     _TXB1D4	set	3898
   116  0000                     _TXB1D5	set	3899
   117  0000                     _TXB1D6	set	3900
   118  0000                     _TXB1D7	set	3901
   119  0000                     _TXB1DLC	set	3893
   120  0000                     _TXB1DLCbits	set	3893
   121  0000                     _TXB1EIDH	set	3891
   122  0000                     _TXB1EIDL	set	3892
   123  0000                     _TXB1SIDH	set	3889
   124  0000                     _TXB1SIDL	set	3890
   125  0000                     _TXB1SIDLbits	set	3890
   126  0000                     _TXB2CONbits	set	3872
   127  0000                     _TXB2D0	set	3878
   128  0000                     _TXB2D1	set	3879
   129  0000                     _TXB2D2	set	3880
   130  0000                     _TXB2D3	set	3881
   131  0000                     _TXB2D4	set	3882
   132  0000                     _TXB2D5	set	3883
   133  0000                     _TXB2D6	set	3884
   134  0000                     _TXB2D7	set	3885
   135  0000                     _TXB2DLC	set	3877
   136  0000                     _TXB2DLCbits	set	3877
   137  0000                     _TXB2EIDH	set	3875
   138  0000                     _TXB2EIDL	set	3876
   139  0000                     _TXB2SIDH	set	3873
   140  0000                     _TXB2SIDL	set	3874
   141  0000                     _TXB2SIDLbits	set	3874
   142  0000                     _ADCON1	set	4033
   143  0000                     _BRGCON1	set	3952
   144  0000                     _BRGCON2	set	3953
   145  0000                     _BRGCON2bits	set	3953
   146  0000                     _BRGCON3	set	3954
   147  0000                     _BRGCON3bits	set	3954
   148  0000                     _CANCON	set	3951
   149  0000                     _CANCONbits	set	3951
   150  0000                     _CANSTAT	set	3950
   151  0000                     _COMSTATbits	set	3956
   152  0000                     _INTCON2bits	set	4081
   153  0000                     _INTCONbits	set	4082
   154  0000                     _IPR3bits	set	4005
   155  0000                     _LATA	set	3977
   156  0000                     _LATB	set	3978
   157  0000                     _LATBbits	set	3978
   158  0000                     _LATC	set	3979
   159  0000                     _PIR3bits	set	4004
   160  0000                     _PORTA	set	3968
   161  0000                     _PORTBbits	set	3969
   162  0000                     _RCONbits	set	4048
   163  0000                     _RXB0CON	set	3936
   164  0000                     _RXB0CONbits	set	3936
   165  0000                     _RXB0D0	set	3942
   166  0000                     _RXB0D1	set	3943
   167  0000                     _RXB0D2	set	3944
   168  0000                     _RXB0D3	set	3945
   169  0000                     _RXB0D4	set	3946
   170  0000                     _RXB0D5	set	3947
   171  0000                     _RXB0D6	set	3948
   172  0000                     _RXB0D7	set	3949
   173  0000                     _RXB0DLC	set	3941
   174  0000                     _RXB0DLCbits	set	3941
   175  0000                     _RXB0EIDH	set	3939
   176  0000                     _RXB0EIDL	set	3940
   177  0000                     _RXB0SIDH	set	3937
   178  0000                     _RXB0SIDL	set	3938
   179  0000                     _RXB0SIDLbits	set	3938
   180  0000                     _RXERRCNT	set	3957
   181  0000                     _T0CON	set	4053
   182  0000                     _T3CON	set	4017
   183  0000                     _TMR0H	set	4055
   184  0000                     _TMR0L	set	4054
   185  0000                     _TMR3H	set	4019
   186  0000                     _TMR3L	set	4018
   187  0000                     _TRISA	set	3986
   188  0000                     _TRISB	set	3987
   189  0000                     _TRISBbits	set	3987
   190  0000                     _TRISC	set	3988
   191  0000                     _TXERRCNT	set	3958
   192                           
   193                           ; #config settings
   194  0000                     
   195                           	psect	cinit
   196  002108                     __pcinit:
   197                           	opt stack 0
   198  002108                     start_initialization:
   199                           	opt stack 0
   200  002108                     __initialization:
   201                           	opt stack 0
   202                           
   203                           ; Clear objects allocated to BANK0 (39 bytes)
   204  002108  EE00  F08E         	lfsr	0,__pbssBANK0
   205  00210C  0E27               	movlw	39
   206  00210E                     clear_0:
   207  00210E  6AEE               	clrf	postinc0,c
   208  002110  06E8               	decf	wreg,f,c
   209  002112  E1FD               	bnz	clear_0
   210                           
   211                           ; Clear objects allocated to BITCOMRAM (1 bytes)
   212  002114  6A3D               	clrf	(__pbitbssCOMRAM/(0+8))& (0+255),c
   213                           
   214                           ; Clear objects allocated to COMRAM (25 bytes)
   215  002116  EE00  F024         	lfsr	0,__pbssCOMRAM
   216  00211A  0E19               	movlw	25
   217  00211C                     clear_1:
   218  00211C  6AEE               	clrf	postinc0,c
   219  00211E  06E8               	decf	wreg,f,c
   220  002120  E1FD               	bnz	clear_1
   221                           
   222                           ; Initialize objects allocated to COMRAM (1 bytes)
   223                           ; load TBLPTR registers with __pidataCOMRAM
   224  002122  0E92               	movlw	low __pidataCOMRAM
   225  002124  6EF6               	movwf	tblptrl,c
   226  002126  0E21               	movlw	high __pidataCOMRAM
   227  002128  6EF7               	movwf	tblptrh,c
   228  00212A  0E00               	movlw	low (__pidataCOMRAM shr (0+16))
   229  00212C  6EF8               	movwf	tblptru,c
   230  00212E  0009               	tblrd		*+	;fetch initializer
   231  002130  CFF5 F03E          	movff	tablat,__pdataCOMRAM
   232  002134                     end_of_initialization:
   233                           	opt stack 0
   234  002134                     __end_of__initialization:
   235                           	opt stack 0
   236  002134  903F               	bcf	int$flags,0,c	;clear compiler interrupt flag (level 1)
   237  002136  923F               	bcf	int$flags,1,c	;clear compiler interrupt flag (level 2)
   238  002138  0E00               	movlw	low (__Lmediumconst shr (0+16))
   239  00213A  6EF8               	movwf	tblptru,c
   240  00213C  0100               	movlb	0
   241  00213E  EFAE  F00F         	goto	_main	;jump to C main() function
   242                           tblptru	equ	0xFF8
   243                           tblptrh	equ	0xFF7
   244                           tblptrl	equ	0xFF6
   245                           tablat	equ	0xFF5
   246                           postinc0	equ	0xFEE
   247                           wreg	equ	0xFE8
   248                           
   249                           	psect	bitbssCOMRAM
   250  0001E8                     __pbitbssCOMRAM:
   251                           	opt stack 0
   252  0001E8                     _activation:
   253                           	opt stack 0
   254  0001E8                     	ds	1
   255  0001E9                     _request_sent:
   256                           	opt stack 0
   257  0001E9                     	ds	1
   258                           tblptru	equ	0xFF8
   259                           tblptrh	equ	0xFF7
   260                           tblptrl	equ	0xFF6
   261                           tablat	equ	0xFF5
   262                           postinc0	equ	0xFEE
   263                           wreg	equ	0xFE8
   264                           
   265                           	psect	bssCOMRAM
   266  000024                     __pbssCOMRAM:
   267                           	opt stack 0
   268  000024                     _MUX_select:
   269                           	opt stack 0
   270  000024                     	ds	8
   271  00002C                     _clock_counter_reference:
   272                           	opt stack 0
   273  00002C                     	ds	2
   274  00002E                     _distance:
   275                           	opt stack 0
   276  00002E                     	ds	2
   277  000030                     _distance_dx:
   278                           	opt stack 0
   279  000030                     	ds	2
   280  000032                     _distance_sx:
   281                           	opt stack 0
   282  000032                     	ds	2
   283  000034                     _pulse_time:
   284                           	opt stack 0
   285  000034                     	ds	2
   286  000036                     _timerValue:
   287                           	opt stack 0
   288  000036                     	ds	2
   289  000038                     _timerValue2:
   290                           	opt stack 0
   291  000038                     	ds	2
   292  00003A                     _MUX_index:
   293                           	opt stack 0
   294  00003A                     	ds	1
   295  00003B                     _asus:
   296                           	opt stack 0
   297  00003B                     	ds	1
   298  00003C                     _gianni:
   299                           	opt stack 0
   300  00003C                     	ds	1
   301                           tblptru	equ	0xFF8
   302                           tblptrh	equ	0xFF7
   303                           tblptrl	equ	0xFF6
   304                           tablat	equ	0xFF5
   305                           postinc0	equ	0xFEE
   306                           wreg	equ	0xFE8
   307                           
   308                           	psect	dataCOMRAM
   309  00003E                     __pdataCOMRAM:
   310                           	opt stack 0
   311  00003E                     _delay_quartz_frequency_value:
   312                           	opt stack 0
   313  00003E                     	ds	1
   314                           tblptru	equ	0xFF8
   315                           tblptrh	equ	0xFF7
   316                           tblptrl	equ	0xFF6
   317                           tablat	equ	0xFF5
   318                           postinc0	equ	0xFEE
   319                           wreg	equ	0xFE8
   320                           
   321                           	psect	bssBANK0
   322  00008E                     __pbssBANK0:
   323                           	opt stack 0
   324  00008E                     _sensor_distance:
   325                           	opt stack 0
   326  00008E                     	ds	16
   327  00009E                     _msg:
   328                           	opt stack 0
   329  00009E                     	ds	15
   330  0000AD                     _data:
   331                           	opt stack 0
   332  0000AD                     	ds	8
   333                           tblptru	equ	0xFF8
   334                           tblptrh	equ	0xFF7
   335                           tblptrl	equ	0xFF6
   336                           tablat	equ	0xFF5
   337                           postinc0	equ	0xFEE
   338                           wreg	equ	0xFE8
   339                           
   340                           	psect	cstackBANK0
   341  000060                     __pcstackBANK0:
   342                           	opt stack 0
   343  000060                     ?___lwdiv:
   344                           	opt stack 0
   345  000060                     ___lwdiv@dividend:
   346                           	opt stack 0
   347                           
   348                           ; 2 bytes @ 0x0
   349  000060                     	ds	2
   350  000062                     ___lwdiv@divisor:
   351                           	opt stack 0
   352                           
   353                           ; 2 bytes @ 0x2
   354  000062                     	ds	2
   355  000064                     ??_ISR_Alta:
   356                           
   357                           ; 0 bytes @ 0x4
   358  000064                     	ds	16
   359  000074                     CANOperationMode@mode:
   360                           	opt stack 0
   361  000074                     _CANisTxReady$2722:
   362                           	opt stack 0
   363  000074                     CANsendMessage@identifier:
   364                           	opt stack 0
   365  000074                     CANSetMask@mask:
   366                           	opt stack 0
   367  000074                     CANSetFilter@filter:
   368                           	opt stack 0
   369                           
   370                           ; 4 bytes @ 0x14
   371  000074                     	ds	4
   372  000078                     CANSetMask@type:
   373                           	opt stack 0
   374  000078                     CANSetFilter@type:
   375                           	opt stack 0
   376  000078                     CANsendMessage@data:
   377                           	opt stack 0
   378                           
   379                           ; 2 bytes @ 0x18
   380  000078                     	ds	1
   381  000079                     ??_CANSetMask:
   382  000079                     ??_CANSetFilter:
   383                           
   384                           ; 0 bytes @ 0x19
   385  000079                     	ds	1
   386  00007A                     CANsendMessage@dataLength:
   387                           	opt stack 0
   388                           
   389                           ; 1 bytes @ 0x1A
   390  00007A                     	ds	1
   391  00007B                     CANsendMessage@flags:
   392                           	opt stack 0
   393                           
   394                           ; 1 bytes @ 0x1B
   395  00007B                     	ds	1
   396  00007C                     ??_CANsendMessage:
   397                           
   398                           ; 0 bytes @ 0x1C
   399  00007C                     	ds	1
   400  00007D                     CANSetMask@numBuffer:
   401                           	opt stack 0
   402  00007D                     CANSetFilter@numBuffer:
   403                           	opt stack 0
   404                           
   405                           ; 1 bytes @ 0x1D
   406  00007D                     	ds	1
   407  00007E                     CANSetMask@tamp:
   408                           	opt stack 0
   409  00007E                     CANSetFilter@tamp:
   410                           	opt stack 0
   411                           
   412                           ; 4 bytes @ 0x1E
   413  00007E                     	ds	2
   414  000080                     CANsendMessage@tamp:
   415                           	opt stack 0
   416                           
   417                           ; 4 bytes @ 0x20
   418  000080                     	ds	2
   419  000082                     CANInitialize@phaseSeg1:
   420                           	opt stack 0
   421                           
   422                           ; 1 bytes @ 0x22
   423  000082                     	ds	1
   424  000083                     CANInitialize@phaseSeg2:
   425                           	opt stack 0
   426                           
   427                           ; 1 bytes @ 0x23
   428  000083                     	ds	1
   429  000084                     CANInitialize@SJW:
   430                           	opt stack 0
   431                           
   432                           ; 1 bytes @ 0x24
   433  000084                     	ds	1
   434  000085                     CANInitialize@BRP:
   435                           	opt stack 0
   436                           
   437                           ; 1 bytes @ 0x25
   438  000085                     	ds	1
   439  000086                     CANInitialize@flags:
   440                           	opt stack 0
   441                           
   442                           ; 1 bytes @ 0x26
   443  000086                     	ds	1
   444  000087                     ??_CANInitialize:
   445                           
   446                           ; 0 bytes @ 0x27
   447  000087                     	ds	4
   448  00008B                     CANInitialize@propSeg:
   449                           	opt stack 0
   450                           
   451                           ; 1 bytes @ 0x2B
   452  00008B                     	ds	1
   453  00008C                     CANInitialize@FilterConfig1:
   454                           	opt stack 0
   455                           
   456                           ; 1 bytes @ 0x2C
   457  00008C                     	ds	1
   458  00008D                     CANInitialize@FilterConfig2:
   459                           	opt stack 0
   460                           
   461                           ; 1 bytes @ 0x2D
   462  00008D                     	ds	1
   463  00008E                     tblptru	equ	0xFF8
   464                           tblptrh	equ	0xFF7
   465                           tblptrl	equ	0xFF6
   466                           tablat	equ	0xFF5
   467                           postinc0	equ	0xFEE
   468                           wreg	equ	0xFE8
   469                           
   470                           ; 0 bytes @ 0x2E
   471                           
   472                           	psect	cstackCOMRAM
   473  000001                     __pcstackCOMRAM:
   474                           	opt stack 0
   475  000001                     _CANisRxReady$2724:
   476                           	opt stack 0
   477  000001                     CANreceiveMessage@msg:
   478                           	opt stack 0
   479                           
   480                           ; 2 bytes @ 0x0
   481  000001                     	ds	2
   482  000003                     ??_CANreceiveMessage:
   483                           
   484                           ; 0 bytes @ 0x2
   485  000003                     	ds	8
   486  00000B                     CANreceiveMessage@error:
   487                           	opt stack 0
   488                           
   489                           ; 1 bytes @ 0xA
   490  00000B                     	ds	1
   491  00000C                     CANreceiveMessage@tamp:
   492                           	opt stack 0
   493                           
   494                           ; 1 bytes @ 0xB
   495  00000C                     	ds	1
   496  00000D                     ??_ISR_Bassa:
   497                           
   498                           ; 0 bytes @ 0xC
   499  00000D                     	ds	19
   500  000020                     ISR_Bassa@gigi:
   501                           	opt stack 0
   502                           
   503                           ; 1 bytes @ 0x1F
   504  000020                     	ds	1
   505  000021                     ___lwdiv@counter:
   506                           	opt stack 0
   507                           
   508                           ; 1 bytes @ 0x20
   509  000021                     	ds	1
   510  000022                     ___lwdiv@quotient:
   511                           	opt stack 0
   512                           
   513                           ; 2 bytes @ 0x21
   514  000022                     	ds	2
   515                           tblptru	equ	0xFF8
   516                           tblptrh	equ	0xFF7
   517                           tblptrl	equ	0xFF6
   518                           tablat	equ	0xFF5
   519                           postinc0	equ	0xFEE
   520                           wreg	equ	0xFE8
   521                           
   522 ;;
   523 ;;Main: autosize = 0, tempsize = 0, incstack = 0, save=0
   524 ;;
   525 ;; *************** function _main *****************
   526 ;; Defined at:
   527 ;;		line 104 in file "parcheggio.c"
   528 ;; Parameters:    Size  Location     Type
   529 ;;		None
   530 ;; Auto vars:     Size  Location     Type
   531 ;;		None
   532 ;; Return value:  Size  Location     Type
   533 ;;		None               void
   534 ;; Registers used:
   535 ;;		wreg, fsr2l, fsr2h, status,2, status,0, cstack
   536 ;; Tracked objects:
   537 ;;		On entry : 0/0
   538 ;;		On exit  : 0/0
   539 ;;		Unchanged: 0/0
   540 ;; Data sizes:     COMRAM   BANK0   BANK1   BANK2   BANK3   BANK4   BANK5   BANK6   BANK7   BANK8   BANK9  BANK10  BANK1
      +1  BANK12
   541 ;;      Params:         0       0       0       0       0       0       0       0       0       0       0       0       
      +0       0
   542 ;;      Locals:         0       0       0       0       0       0       0       0       0       0       0       0       
      +0       0
   543 ;;      Temps:          0       0       0       0       0       0       0       0       0       0       0       0       
      +0       0
   544 ;;      Totals:         0       0       0       0       0       0       0       0       0       0       0       0       
      +0       0
   545 ;;Total ram usage:        0 bytes
   546 ;; Hardware stack levels required when called:    7
   547 ;; This function calls:
   548 ;;		_CANisTxReady
   549 ;;		_CANsendMessage
   550 ;;		_configurazione
   551 ;; This function is called by:
   552 ;;		Startup code after reset
   553 ;; This function uses a non-reentrant model
   554 ;;
   555                           
   556                           	psect	text0
   557  001F5C                     __ptext0:
   558                           	opt stack 0
   559  001F5C                     _main:
   560                           	opt stack 24
   561                           
   562                           ;parcheggio.c: 105: configurazione();
   563                           
   564                           ;incstack = 0
   565  001F5C  EC50  F010         	call	_configurazione	;wreg free
   566                           
   567                           ;parcheggio.c: 106: MUX_select[0] = 0b00000000;
   568  001F60  0E00               	movlw	0
   569  001F62  6E24               	movwf	_MUX_select,c
   570                           
   571                           ;parcheggio.c: 107: MUX_select[1] = 0b00000001;
   572  001F64  0E01               	movlw	1
   573  001F66  6E25               	movwf	_MUX_select+1,c
   574                           
   575                           ;parcheggio.c: 108: MUX_select[2] = 0b00000010;
   576  001F68  0E02               	movlw	2
   577  001F6A  6E26               	movwf	_MUX_select+2,c
   578                           
   579                           ;parcheggio.c: 109: MUX_select[3] = 0b00000011;
   580  001F6C  0E03               	movlw	3
   581  001F6E  6E27               	movwf	_MUX_select+3,c
   582                           
   583                           ;parcheggio.c: 110: MUX_select[4] = 0b00000100;
   584  001F70  0E04               	movlw	4
   585  001F72  6E28               	movwf	_MUX_select+4,c
   586                           
   587                           ;parcheggio.c: 111: MUX_select[5] = 0b00000101;
   588  001F74  0E05               	movlw	5
   589  001F76  6E29               	movwf	_MUX_select+5,c
   590                           
   591                           ;parcheggio.c: 112: MUX_select[6] = 0b00000110;
   592  001F78  0E06               	movlw	6
   593  001F7A  6E2A               	movwf	_MUX_select+6,c
   594                           
   595                           ;parcheggio.c: 113: MUX_select[7] = 0b00000111;
   596  001F7C  0E07               	movlw	7
   597  001F7E  6E2B               	movwf	_MUX_select+7,c
   598                           
   599                           ;parcheggio.c: 115: PORTBbits.RB4 = 0;
   600  001F80  9881               	bcf	3969,4,c	;volatile
   601                           
   602                           ;parcheggio.c: 116: PORTBbits.RB5 = 0;
   603  001F82  9A81               	bcf	3969,5,c	;volatile
   604                           
   605                           ;parcheggio.c: 117: PORTBbits.RB6 = 0;
   606  001F84  9C81               	bcf	3969,6,c	;volatile
   607                           
   608                           ;parcheggio.c: 119: request_sent = 0;
   609  001F86  923D               	bcf	_request_sent/(0+8),_request_sent& (0+7),c
   610  001F88                     l3370:
   611                           
   612                           ;parcheggio.c: 134: activation = 1;
   613  001F88  803D               	bsf	_activation/(0+8),_activation& (0+7),c
   614                           
   615                           ;parcheggio.c: 135: while (activation == 1) {
   616  001F8A  D051               	goto	l3400
   617  001F8C                     l3372:
   618                           
   619                           ;parcheggio.c: 136: if (sensor_distance[0] > 50) {
   620  001F8C  0100               	movlb	0	; () banked
   621  001F8E  518F               	movf	(_sensor_distance+1)& (0+255),w,b	;volatile
   622  001F90  E105               	bnz	u3720
   623  001F92  0E33               	movlw	51
   624  001F94  0100               	movlb	0	; () banked
   625  001F96  5D8E               	subwf	_sensor_distance& (0+255),w,b	;volatile
   626  001F98  A0D8               	btfss	status,0,c
   627  001F9A  D021               	goto	l3386
   628  001F9C                     u3720:
   629                           
   630                           ; BSR set to: 0
   631                           ;parcheggio.c: 137: PORTBbits.RB4 = 1;
   632  001F9C  8881               	bsf	3969,4,c	;volatile
   633                           
   634                           ;parcheggio.c: 138: if (request_sent == 0) {
   635  001F9E  B23D               	btfsc	_request_sent/(0+8),_request_sent& (0+7),c
   636  001FA0  D01E               	goto	l3386
   637  001FA2                     l3378:
   638  001FA2  ECA1  F010         	call	_CANisTxReady	;wreg free
   639  001FA6  0900               	iorlw	0
   640  001FA8  B4D8               	btfsc	status,2,c
   641  001FAA  D7FB               	goto	l3378
   642                           
   643                           ;parcheggio.c: 140: CANsendMessage(0b00000001000, data, 8, CAN_CONFIG_STD_MSG & CAN_REMO
      +                          TE_TX_FRAME & CAN_TX_PRIORITY_0);
   644  001FAC  0E08               	movlw	8
   645  001FAE  0100               	movlb	0	; () banked
   646  001FB0  6F74               	movwf	CANsendMessage@identifier& (0+255),b
   647  001FB2  0E00               	movlw	0
   648  001FB4  6F75               	movwf	(CANsendMessage@identifier+1)& (0+255),b
   649  001FB6  0E00               	movlw	0
   650  001FB8  6F76               	movwf	(CANsendMessage@identifier+2)& (0+255),b
   651  001FBA  0E00               	movlw	0
   652  001FBC  6F77               	movwf	(CANsendMessage@identifier+3)& (0+255),b
   653  001FBE  0EAD               	movlw	low _data
   654  001FC0  0100               	movlb	0	; () banked
   655  001FC2  6F78               	movwf	CANsendMessage@data& (0+255),b
   656  001FC4  0E00               	movlw	high _data
   657  001FC6  0100               	movlb	0	; () banked
   658  001FC8  6F79               	movwf	(CANsendMessage@data+1)& (0+255),b
   659  001FCA  0E08               	movlw	8
   660  001FCC  0100               	movlb	0	; () banked
   661  001FCE  6F7A               	movwf	CANsendMessage@dataLength& (0+255),b
   662  001FD0  0EFC               	movlw	252
   663  001FD2  0100               	movlb	0	; () banked
   664  001FD4  6F7B               	movwf	CANsendMessage@flags& (0+255),b
   665  001FD6  EC40  F006         	call	_CANsendMessage	;wreg free
   666                           
   667                           ;parcheggio.c: 141: request_sent = 1;
   668  001FDA  823D               	bsf	_request_sent/(0+8),_request_sent& (0+7),c
   669                           
   670                           ;parcheggio.c: 142: LATBbits.LATB4 = 1;
   671  001FDC  888A               	bsf	3978,4,c	;volatile
   672  001FDE                     l3386:
   673                           
   674                           ;parcheggio.c: 143: }
   675                           ;parcheggio.c: 144: }
   676                           ;parcheggio.c: 145: if ((sensor_distance[0] < 50)&&(request_sent == 1)) {
   677  001FDE  0100               	movlb	0	; () banked
   678  001FE0  518F               	movf	(_sensor_distance+1)& (0+255),w,b	;volatile
   679  001FE2  E125               	bnz	l3400
   680  001FE4  0E32               	movlw	50
   681  001FE6  0100               	movlb	0	; () banked
   682  001FE8  5D8E               	subwf	_sensor_distance& (0+255),w,b	;volatile
   683  001FEA  A0D8               	btfss	status,0,c
   684                           
   685                           ; BSR set to: 0
   686  001FEC  A23D               	btfss	_request_sent/(0+8),_request_sent& (0+7),c
   687  001FEE  D01F               	goto	l3400
   688                           
   689                           ; BSR set to: 0
   690                           ;parcheggio.c: 146: request_sent = 0;
   691  001FF0  923D               	bcf	_request_sent/(0+8),_request_sent& (0+7),c
   692  001FF2                     l3392:
   693  001FF2  ECA1  F010         	call	_CANisTxReady	;wreg free
   694  001FF6  0900               	iorlw	0
   695  001FF8  B4D8               	btfsc	status,2,c
   696  001FFA  D7FB               	goto	l3392
   697                           
   698                           ;parcheggio.c: 148: CANsendMessage(0b00000000111, data, 8, CAN_CONFIG_STD_MSG & CAN_REMO
      +                          TE_TX_FRAME & CAN_TX_PRIORITY_0);
   699  001FFC  0E07               	movlw	7
   700  001FFE  0100               	movlb	0	; () banked
   701  002000  6F74               	movwf	CANsendMessage@identifier& (0+255),b
   702  002002  0E00               	movlw	0
   703  002004  6F75               	movwf	(CANsendMessage@identifier+1)& (0+255),b
   704  002006  0E00               	movlw	0
   705  002008  6F76               	movwf	(CANsendMessage@identifier+2)& (0+255),b
   706  00200A  0E00               	movlw	0
   707  00200C  6F77               	movwf	(CANsendMessage@identifier+3)& (0+255),b
   708  00200E  0EAD               	movlw	low _data
   709  002010  0100               	movlb	0	; () banked
   710  002012  6F78               	movwf	CANsendMessage@data& (0+255),b
   711  002014  0E00               	movlw	high _data
   712  002016  0100               	movlb	0	; () banked
   713  002018  6F79               	movwf	(CANsendMessage@data+1)& (0+255),b
   714  00201A  0E08               	movlw	8
   715  00201C  0100               	movlb	0	; () banked
   716  00201E  6F7A               	movwf	CANsendMessage@dataLength& (0+255),b
   717  002020  0EFC               	movlw	252
   718  002022  0100               	movlb	0	; () banked
   719  002024  6F7B               	movwf	CANsendMessage@flags& (0+255),b
   720  002026  EC40  F006         	call	_CANsendMessage	;wreg free
   721                           
   722                           ;parcheggio.c: 149: LATBbits.LATB5 = 1;
   723  00202A  8A8A               	bsf	3978,5,c	;volatile
   724                           
   725                           ;parcheggio.c: 150: PORTBbits.RB6 = 1;
   726  00202C  8C81               	bsf	3969,6,c	;volatile
   727  00202E                     l3400:
   728  00202E  A03D               	btfss	_activation/(0+8),_activation& (0+7),c
   729  002030  D7AB               	goto	l3370
   730  002032  D7AC               	goto	l3372
   731  002034                     __end_of_main:
   732                           	opt stack 0
   733                           tblptru	equ	0xFF8
   734                           tblptrh	equ	0xFF7
   735                           tblptrl	equ	0xFF6
   736                           tablat	equ	0xFF5
   737                           postinc0	equ	0xFEE
   738                           wreg	equ	0xFE8
   739                           status	equ	0xFD8
   740                           
   741 ;; *************** function _configurazione *****************
   742 ;; Defined at:
   743 ;;		line 156 in file "parcheggio.c"
   744 ;; Parameters:    Size  Location     Type
   745 ;;		None
   746 ;; Auto vars:     Size  Location     Type
   747 ;;		None
   748 ;; Return value:  Size  Location     Type
   749 ;;		None               void
   750 ;; Registers used:
   751 ;;		wreg, status,2, status,0, cstack
   752 ;; Tracked objects:
   753 ;;		On entry : 0/0
   754 ;;		On exit  : 0/0
   755 ;;		Unchanged: 0/0
   756 ;; Data sizes:     COMRAM   BANK0   BANK1   BANK2   BANK3   BANK4   BANK5   BANK6   BANK7   BANK8   BANK9  BANK10  BANK1
      +1  BANK12
   757 ;;      Params:         0       0       0       0       0       0       0       0       0       0       0       0       
      +0       0
   758 ;;      Locals:         0       0       0       0       0       0       0       0       0       0       0       0       
      +0       0
   759 ;;      Temps:          0       0       0       0       0       0       0       0       0       0       0       0       
      +0       0
   760 ;;      Totals:         0       0       0       0       0       0       0       0       0       0       0       0       
      +0       0
   761 ;;Total ram usage:        0 bytes
   762 ;; Hardware stack levels used:    1
   763 ;; Hardware stack levels required when called:    6
   764 ;; This function calls:
   765 ;;		_CANInitialize
   766 ;; This function is called by:
   767 ;;		_main
   768 ;; This function uses a non-reentrant model
   769 ;;
   770                           
   771                           	psect	text1
   772  0020A0                     __ptext1:
   773                           	opt stack 0
   774  0020A0                     _configurazione:
   775                           	opt stack 24
   776                           
   777                           ;parcheggio.c: 157: LATA = 0x00;
   778                           
   779                           ;incstack = 0
   780  0020A0  0E00               	movlw	0
   781  0020A2  6E89               	movwf	3977,c	;volatile
   782                           
   783                           ;parcheggio.c: 158: TRISA = 0b11110000;
   784  0020A4  0EF0               	movlw	240
   785  0020A6  6E92               	movwf	3986,c	;volatile
   786                           
   787                           ;parcheggio.c: 160: LATB = 0x00;
   788  0020A8  0E00               	movlw	0
   789  0020AA  6E8A               	movwf	3978,c	;volatile
   790                           
   791                           ;parcheggio.c: 161: TRISB = 0b10001010;
   792  0020AC  0E8A               	movlw	138
   793  0020AE  6E93               	movwf	3987,c	;volatile
   794                           
   795                           ;parcheggio.c: 163: LATC = 0x00;
   796  0020B0  0E00               	movlw	0
   797  0020B2  6E8B               	movwf	3979,c	;volatile
   798                           
   799                           ;parcheggio.c: 164: TRISC = 0b11111111;
   800  0020B4  6894               	setf	3988,c	;volatile
   801                           
   802                           ;parcheggio.c: 166: ADCON1 = 0xFF;
   803  0020B6  68C1               	setf	4033,c	;volatile
   804                           
   805                           ;parcheggio.c: 167: CANInitialize(4, 6, 5, 1, 3, CAN_CONFIG_LINE_FILTER_OFF & CAN_CONFIG
      +                          _SAMPLE_ONCE & CAN_CONFIG_ALL_VALID_MSG & CAN_CONFIG_DBL_BUFFER_ON);
   806  0020B8  0E06               	movlw	6
   807  0020BA  0100               	movlb	0	; () banked
   808  0020BC  6F82               	movwf	CANInitialize@phaseSeg1& (0+255),b
   809  0020BE  0E05               	movlw	5
   810  0020C0  0100               	movlb	0	; () banked
   811  0020C2  6F83               	movwf	CANInitialize@phaseSeg2& (0+255),b
   812  0020C4  0E01               	movlw	1
   813  0020C6  0100               	movlb	0	; () banked
   814  0020C8  6F84               	movwf	CANInitialize@SJW& (0+255),b
   815  0020CA  0E03               	movlw	3
   816  0020CC  0100               	movlb	0	; () banked
   817  0020CE  6F85               	movwf	CANInitialize@BRP& (0+255),b
   818  0020D0  0E9D               	movlw	157
   819  0020D2  0100               	movlb	0	; () banked
   820  0020D4  6F86               	movwf	CANInitialize@flags& (0+255),b
   821  0020D6  0E04               	movlw	4
   822  0020D8  EC5B  F00E         	call	_CANInitialize
   823                           
   824                           ;parcheggio.c: 169: RCONbits.IPEN = 1;
   825  0020DC  8ED0               	bsf	4048,7,c	;volatile
   826                           
   827                           ;parcheggio.c: 170: PIR3bits.RXB1IF = 0;
   828  0020DE  92A4               	bcf	4004,1,c	;volatile
   829                           
   830                           ;parcheggio.c: 171: PIR3bits.RXB0IF = 0;
   831  0020E0  90A4               	bcf	4004,0,c	;volatile
   832                           
   833                           ;parcheggio.c: 172: IPR3bits.RXB1IP = 0;
   834  0020E2  92A5               	bcf	4005,1,c	;volatile
   835                           
   836                           ;parcheggio.c: 173: IPR3bits.RXB0IP = 0;
   837  0020E4  90A5               	bcf	4005,0,c	;volatile
   838                           
   839                           ;parcheggio.c: 176: INTCON2bits.TMR0IP = 0;
   840  0020E6  94F1               	bcf	intcon2,2,c	;volatile
   841                           
   842                           ;parcheggio.c: 177: T0CON = 0x80;
   843  0020E8  0E80               	movlw	128
   844  0020EA  6ED5               	movwf	4053,c	;volatile
   845                           
   846                           ;parcheggio.c: 178: T3CON = 0x11;
   847  0020EC  0E11               	movlw	17
   848  0020EE  6EB1               	movwf	4017,c	;volatile
   849                           
   850                           ;parcheggio.c: 179: TMR0H = 0x34;
   851  0020F0  0E34               	movlw	52
   852  0020F2  6ED7               	movwf	4055,c	;volatile
   853                           
   854                           ;parcheggio.c: 180: TMR0L = 0xE0;
   855  0020F4  0EE0               	movlw	224
   856  0020F6  6ED6               	movwf	4054,c	;volatile
   857                           
   858                           ;parcheggio.c: 181: INTCONbits.TMR0IF = 0;
   859  0020F8  94F2               	bcf	intcon,2,c	;volatile
   860                           
   861                           ;parcheggio.c: 182: INTCONbits.TMR0IE = 1;
   862  0020FA  8AF2               	bsf	intcon,5,c	;volatile
   863                           
   864                           ;parcheggio.c: 183: INTCON2bits.INTEDG0 = 1;
   865  0020FC  8CF1               	bsf	intcon2,6,c	;volatile
   866                           
   867                           ;parcheggio.c: 184: INTCONbits.INT0IF = 0;
   868  0020FE  92F2               	bcf	intcon,1,c	;volatile
   869                           
   870                           ;parcheggio.c: 185: INTCONbits.INT0IE = 0;
   871  002100  98F2               	bcf	intcon,4,c	;volatile
   872                           
   873                           ;parcheggio.c: 187: INTCONbits.GIEL = 1;
   874  002102  8CF2               	bsf	intcon,6,c	;volatile
   875                           
   876                           ;parcheggio.c: 188: INTCONbits.GIEH = 1;
   877  002104  8EF2               	bsf	intcon,7,c	;volatile
   878  002106  0012               	return		;funcret
   879  002108                     __end_of_configurazione:
   880                           	opt stack 0
   881                           tblptru	equ	0xFF8
   882                           tblptrh	equ	0xFF7
   883                           tblptrl	equ	0xFF6
   884                           tablat	equ	0xFF5
   885                           intcon	equ	0xFF2
   886                           intcon2	equ	0xFF1
   887                           postinc0	equ	0xFEE
   888                           wreg	equ	0xFE8
   889                           status	equ	0xFD8
   890                           
   891 ;; *************** function _CANInitialize *****************
   892 ;; Defined at:
   893 ;;		line 219 in file "../../LaurTec_PIC_libraries_v_3.3.0/inc\CANlib.h"
   894 ;; Parameters:    Size  Location     Type
   895 ;;  propSeg         1    wreg     unsigned char 
   896 ;;  phaseSeg1       1   34[BANK0 ] unsigned char 
   897 ;;  phaseSeg2       1   35[BANK0 ] unsigned char 
   898 ;;  SJW             1   36[BANK0 ] unsigned char 
   899 ;;  BRP             1   37[BANK0 ] unsigned char 
   900 ;;  flags           1   38[BANK0 ] enum E16315
   901 ;; Auto vars:     Size  Location     Type
   902 ;;  propSeg         1   43[BANK0 ] unsigned char 
   903 ;;  FilterConfig    1   45[BANK0 ] unsigned char 
   904 ;;  FilterConfig    1   44[BANK0 ] unsigned char 
   905 ;; Return value:  Size  Location     Type
   906 ;;		None               void
   907 ;; Registers used:
   908 ;;		wreg, status,2, status,0, cstack
   909 ;; Tracked objects:
   910 ;;		On entry : 0/0
   911 ;;		On exit  : 0/0
   912 ;;		Unchanged: 0/0
   913 ;; Data sizes:     COMRAM   BANK0   BANK1   BANK2   BANK3   BANK4   BANK5   BANK6   BANK7   BANK8   BANK9  BANK10  BANK1
      +1  BANK12
   914 ;;      Params:         0       5       0       0       0       0       0       0       0       0       0       0       
      +0       0
   915 ;;      Locals:         0       3       0       0       0       0       0       0       0       0       0       0       
      +0       0
   916 ;;      Temps:          0       4       0       0       0       0       0       0       0       0       0       0       
      +0       0
   917 ;;      Totals:         0      12       0       0       0       0       0       0       0       0       0       0       
      +0       0
   918 ;;Total ram usage:       12 bytes
   919 ;; Hardware stack levels used:    1
   920 ;; Hardware stack levels required when called:    5
   921 ;; This function calls:
   922 ;;		_CANOperationMode
   923 ;;		_CANSetFilter
   924 ;;		_CANSetMask
   925 ;; This function is called by:
   926 ;;		_configurazione
   927 ;; This function uses a non-reentrant model
   928 ;;
   929                           
   930                           	psect	text2
   931  001CB6                     __ptext2:
   932                           	opt stack 0
   933  001CB6                     _CANInitialize:
   934                           	opt stack 24
   935                           
   936                           ;incstack = 0
   937                           ;CANInitialize@propSeg stored from wreg
   938  001CB6  0100               	movlb	0	; () banked
   939  001CB8  6F8B               	movwf	CANInitialize@propSeg& (0+255),b
   940                           
   941                           ;inc\CANlib.h: 221: BYTE FilterConfig1;
   942                           ;inc\CANlib.h: 222: BYTE FilterConfig2;
   943                           ;inc\CANlib.h: 224: CANOperationMode(CAN_OP_MODE_CONFIG);
   944  001CBA  0E80               	movlw	128
   945  001CBC  ECB3  F010         	call	_CANOperationMode
   946                           
   947                           ;inc\CANlib.h: 226: BRGCON1 = 0x00;
   948  001CC0  0E00               	movlw	0
   949  001CC2  6E70               	movwf	3952,c	;volatile
   950                           
   951                           ;inc\CANlib.h: 227: BRGCON2 = 0x00;
   952  001CC4  0E00               	movlw	0
   953  001CC6  6E71               	movwf	3953,c	;volatile
   954                           
   955                           ;inc\CANlib.h: 228: BRGCON3 = 0x00;
   956  001CC8  0E00               	movlw	0
   957  001CCA  6E72               	movwf	3954,c	;volatile
   958                           
   959                           ;inc\CANlib.h: 230: SJW= SJW << 6;
   960  001CCC  0100               	movlb	0	; () banked
   961  001CCE  4184               	rrncf	CANInitialize@SJW& (0+255),w,b
   962  001CD0  42E8               	rrncf	wreg,f,c
   963  001CD2  0BC0               	andlw	192
   964  001CD4  0100               	movlb	0	; () banked
   965  001CD6  6F84               	movwf	CANInitialize@SJW& (0+255),b
   966                           
   967                           ; BSR set to: 0
   968                           ;inc\CANlib.h: 231: BRGCON1 |= SJW;
   969  001CD8  0100               	movlb	0	; () banked
   970  001CDA  5184               	movf	CANInitialize@SJW& (0+255),w,b
   971  001CDC  1270               	iorwf	3952,f,c	;volatile
   972                           
   973                           ; BSR set to: 0
   974                           ;inc\CANlib.h: 232: BRGCON1 |= BRP;
   975  001CDE  0100               	movlb	0	; () banked
   976  001CE0  5185               	movf	CANInitialize@BRP& (0+255),w,b
   977  001CE2  1270               	iorwf	3952,f,c	;volatile
   978                           
   979                           ; BSR set to: 0
   980                           ;inc\CANlib.h: 234: BRGCON2 |= propSeg;
   981  001CE4  0100               	movlb	0	; () banked
   982  001CE6  518B               	movf	CANInitialize@propSeg& (0+255),w,b
   983  001CE8  1271               	iorwf	3953,f,c	;volatile
   984                           
   985                           ; BSR set to: 0
   986                           ;inc\CANlib.h: 235: phaseSeg1 = phaseSeg1 <<3;
   987  001CEA  0100               	movlb	0	; () banked
   988  001CEC  3982               	swapf	CANInitialize@phaseSeg1& (0+255),w,b
   989  001CEE  42E8               	rrncf	wreg,f,c
   990  001CF0  0BF8               	andlw	248
   991  001CF2  0100               	movlb	0	; () banked
   992  001CF4  6F82               	movwf	CANInitialize@phaseSeg1& (0+255),b
   993                           
   994                           ; BSR set to: 0
   995                           ;inc\CANlib.h: 236: BRGCON2 |= phaseSeg1;
   996  001CF6  0100               	movlb	0	; () banked
   997  001CF8  5182               	movf	CANInitialize@phaseSeg1& (0+255),w,b
   998  001CFA  1271               	iorwf	3953,f,c	;volatile
   999                           
  1000                           ; BSR set to: 0
  1001                           ;inc\CANlib.h: 238: if ( !(flags & CAN_CONFIG_SAMPLE_BIT) )
  1002  001CFC  0100               	movlb	0	; () banked
  1003  001CFE  A586               	btfss	CANInitialize@flags& (0+255),2,b
  1004                           
  1005                           ; BSR set to: 0
  1006                           ;inc\CANlib.h: 239: BRGCON2bits.SAM= 1;
  1007  001D00  8C71               	bsf	3953,6,c	;volatile
  1008                           
  1009                           ; BSR set to: 0
  1010                           ;inc\CANlib.h: 241: if ( flags & CAN_CONFIG_PHSEG2_PRG_BIT )
  1011  001D02  0100               	movlb	0	; () banked
  1012  001D04  B186               	btfsc	CANInitialize@flags& (0+255),0,b
  1013                           
  1014                           ; BSR set to: 0
  1015                           ;inc\CANlib.h: 242: BRGCON2bits.SEG2PHTS = 1;
  1016  001D06  8E71               	bsf	3953,7,c	;volatile
  1017                           
  1018                           ; BSR set to: 0
  1019                           ;inc\CANlib.h: 244: BRGCON3 |= phaseSeg2;
  1020                           
  1021                           ; BSR set to: 0
  1022  001D08  0100               	movlb	0	; () banked
  1023  001D0A  5183               	movf	CANInitialize@phaseSeg2& (0+255),w,b
  1024  001D0C  1272               	iorwf	3954,f,c	;volatile
  1025                           
  1026                           ; BSR set to: 0
  1027                           ;inc\CANlib.h: 246: if ( flags & CAN_CONFIG_LINE_FILTER_BIT )
  1028  001D0E  0100               	movlb	0	; () banked
  1029  001D10  B386               	btfsc	CANInitialize@flags& (0+255),1,b
  1030                           
  1031                           ; BSR set to: 0
  1032                           ;inc\CANlib.h: 247: BRGCON3bits.WAKFIL = 1;
  1033  001D12  8C72               	bsf	3954,6,c	;volatile
  1034                           
  1035                           ; BSR set to: 0
  1036                           ;inc\CANlib.h: 252: RXB0CON = flags & CAN_CONFIG_MSG_BITS;
  1037                           
  1038                           ; BSR set to: 0
  1039  001D14  0100               	movlb	0	; () banked
  1040  001D16  5186               	movf	CANInitialize@flags& (0+255),w,b
  1041  001D18  0B60               	andlw	96
  1042  001D1A  6E60               	movwf	3936,c	;volatile
  1043                           
  1044                           ;inc\CANlib.h: 253: if ( (flags & CAN_CONFIG_DBL_BUFFER_BIT)== CAN_CONFIG_DBL_BUFFER_ON 
      +                          )
  1045  001D1C  0100               	movlb	0	; () banked
  1046  001D1E  5186               	movf	CANInitialize@flags& (0+255),w,b
  1047  001D20  0B10               	andlw	16
  1048  001D22  0AFF               	xorlw	255
  1049  001D24  B4D8               	btfsc	status,2,c
  1050                           
  1051                           ; BSR set to: 0
  1052                           ;inc\CANlib.h: 254: RXB0CONbits.RXB0DBEN = 1;
  1053  001D26  8460               	bsf	3936,2,c	;volatile
  1054                           
  1055                           ; BSR set to: 0
  1056                           ;inc\CANlib.h: 256: RXB1CON = RXB0CON;
  1057  001D28  CF60 FF50          	movff	3936,3920	;volatile
  1058                           
  1059                           ; BSR set to: 0
  1060                           ;inc\CANlib.h: 260: CANSetMask (CAN_MASK_B1, 0x00000000, CAN_CONFIG_XTD_MSG);
  1061  001D2C  0E00               	movlw	0
  1062  001D2E  0100               	movlb	0	; () banked
  1063  001D30  6F74               	movwf	CANSetMask@mask& (0+255),b
  1064  001D32  0E00               	movlw	0
  1065  001D34  6F75               	movwf	(CANSetMask@mask+1)& (0+255),b
  1066  001D36  0E00               	movlw	0
  1067  001D38  6F76               	movwf	(CANSetMask@mask+2)& (0+255),b
  1068  001D3A  0E00               	movlw	0
  1069  001D3C  6F77               	movwf	(CANSetMask@mask+3)& (0+255),b
  1070  001D3E  0EF7               	movlw	247
  1071  001D40  0100               	movlb	0	; () banked
  1072  001D42  6F78               	movwf	CANSetMask@type& (0+255),b
  1073  001D44  0E01               	movlw	1
  1074  001D46  EC8C  F00C         	call	_CANSetMask
  1075                           
  1076                           ;inc\CANlib.h: 261: CANSetMask (CAN_MASK_B2, 0x00000000, CAN_CONFIG_XTD_MSG);
  1077  001D4A  0E00               	movlw	0
  1078  001D4C  0100               	movlb	0	; () banked
  1079  001D4E  6F74               	movwf	CANSetMask@mask& (0+255),b
  1080  001D50  0E00               	movlw	0
  1081  001D52  6F75               	movwf	(CANSetMask@mask+1)& (0+255),b
  1082  001D54  0E00               	movlw	0
  1083  001D56  6F76               	movwf	(CANSetMask@mask+2)& (0+255),b
  1084  001D58  0E00               	movlw	0
  1085  001D5A  6F77               	movwf	(CANSetMask@mask+3)& (0+255),b
  1086  001D5C  0EF7               	movlw	247
  1087  001D5E  0100               	movlb	0	; () banked
  1088  001D60  6F78               	movwf	CANSetMask@type& (0+255),b
  1089  001D62  0E02               	movlw	2
  1090  001D64  EC8C  F00C         	call	_CANSetMask
  1091                           
  1092                           ;inc\CANlib.h: 264: switch( (flags & CAN_CONFIG_MSG_BITS) | ~CAN_CONFIG_MSG_BITS )
  1093  001D68  D00F               	goto	l2810
  1094  001D6A                     l2804:
  1095                           
  1096                           ;inc\CANlib.h: 267: FilterConfig1 = CAN_CONFIG_XTD_MSG;
  1097  001D6A  0EF7               	movlw	247
  1098  001D6C  0100               	movlb	0	; () banked
  1099  001D6E  6F8C               	movwf	CANInitialize@FilterConfig1& (0+255),b
  1100  001D70  D007               	goto	l2806
  1101  001D72                     l334:
  1102                           
  1103                           ; BSR set to: 0
  1104                           ;inc\CANlib.h: 272: FilterConfig1 = CAN_CONFIG_STD_MSG;
  1105  001D72  0100               	movlb	0	; () banked
  1106  001D74  698C               	setf	CANInitialize@FilterConfig1& (0+255),b
  1107                           
  1108                           ;inc\CANlib.h: 273: FilterConfig2 = CAN_CONFIG_STD_MSG;
  1109  001D76  0100               	movlb	0	; () banked
  1110  001D78  698D               	setf	CANInitialize@FilterConfig2& (0+255),b
  1111                           
  1112                           ;inc\CANlib.h: 274: break;
  1113  001D7A  D028               	goto	l2812
  1114  001D7C                     l335:
  1115                           
  1116                           ; BSR set to: 0
  1117                           ;inc\CANlib.h: 276: FilterConfig1 = CAN_CONFIG_STD_MSG;
  1118  001D7C  0100               	movlb	0	; () banked
  1119  001D7E  698C               	setf	CANInitialize@FilterConfig1& (0+255),b
  1120  001D80                     l2806:
  1121                           
  1122                           ; BSR set to: 0
  1123                           ;inc\CANlib.h: 277: FilterConfig2 = CAN_CONFIG_XTD_MSG;
  1124  001D80  0EF7               	movlw	247
  1125  001D82  0100               	movlb	0	; () banked
  1126  001D84  6F8D               	movwf	CANInitialize@FilterConfig2& (0+255),b
  1127                           
  1128                           ; BSR set to: 0
  1129                           ;inc\CANlib.h: 279: }
  1130                           
  1131                           ;inc\CANlib.h: 278: break;
  1132  001D86  D022               	goto	l2812
  1133  001D88                     l2810:
  1134  001D88  0E9F               	movlw	159
  1135  001D8A  0100               	movlb	0	; () banked
  1136  001D8C  6F87               	movwf	??_CANInitialize& (0+255),b
  1137  001D8E  0EFF               	movlw	255
  1138  001D90  0100               	movlb	0	; () banked
  1139  001D92  6F88               	movwf	(??_CANInitialize+1)& (0+255),b
  1140  001D94  0100               	movlb	0	; () banked
  1141  001D96  5186               	movf	CANInitialize@flags& (0+255),w,b
  1142  001D98  0B60               	andlw	96
  1143  001D9A  0100               	movlb	0	; () banked
  1144  001D9C  6F89               	movwf	(??_CANInitialize+2)& (0+255),b
  1145  001D9E  6B8A               	clrf	(??_CANInitialize+3)& (0+255),b
  1146  001DA0  0100               	movlb	0	; () banked
  1147  001DA2  5187               	movf	??_CANInitialize& (0+255),w,b
  1148  001DA4  0100               	movlb	0	; () banked
  1149  001DA6  1389               	iorwf	(??_CANInitialize+2)& (0+255),f,b
  1150  001DA8  0100               	movlb	0	; () banked
  1151  001DAA  5188               	movf	(??_CANInitialize+1)& (0+255),w,b
  1152  001DAC  0100               	movlb	0	; () banked
  1153  001DAE  138A               	iorwf	(??_CANInitialize+3)& (0+255),f,b
  1154                           
  1155                           ; Switch on 2 bytes has been partitioned into a top level switch of size 1, and 1 sub-sw
      +                          itches
  1156                           ; Switch size 1, requested type "space"
  1157                           ; Number of cases is 1, Range of values is 0 to 0
  1158                           ; switch strategies available:
  1159                           ; Name         Instructions Cycles
  1160                           ; simple_byte            4     3 (average)
  1161                           ;	Chosen strategy is simple_byte
  1162  001DB0  0100               	movlb	0	; () banked
  1163  001DB2  518A               	movf	(??_CANInitialize+3)& (0+255),w,b
  1164  001DB4  0A00               	xorlw	0	; case 0
  1165  001DB6  A4D8               	btfss	status,2,c
  1166  001DB8  D7E1               	goto	l335
  1167                           
  1168                           ; BSR set to: 0
  1169                           ; Switch size 1, requested type "space"
  1170                           ; Number of cases is 2, Range of values is 191 to 223
  1171                           ; switch strategies available:
  1172                           ; Name         Instructions Cycles
  1173                           ; simple_byte            7     4 (average)
  1174                           ;	Chosen strategy is simple_byte
  1175  001DBA  0100               	movlb	0	; () banked
  1176  001DBC  5189               	movf	(??_CANInitialize+2)& (0+255),w,b
  1177  001DBE  0ABF               	xorlw	191	; case 191
  1178  001DC0  B4D8               	btfsc	status,2,c
  1179  001DC2  D7D7               	goto	l334
  1180  001DC4  0A60               	xorlw	96	; case 223
  1181  001DC6  B4D8               	btfsc	status,2,c
  1182  001DC8  D7D0               	goto	l2804
  1183  001DCA  D7D8               	goto	l335
  1184  001DCC                     l2812:
  1185                           
  1186                           ; BSR set to: 0
  1187                           ;inc\CANlib.h: 281: CANSetFilter(CAN_FILTER_B1_F1, 0, FilterConfig1);
  1188  001DCC  0E00               	movlw	0
  1189  001DCE  0100               	movlb	0	; () banked
  1190  001DD0  6F74               	movwf	CANSetFilter@filter& (0+255),b
  1191  001DD2  0E00               	movlw	0
  1192  001DD4  6F75               	movwf	(CANSetFilter@filter+1)& (0+255),b
  1193  001DD6  0E00               	movlw	0
  1194  001DD8  6F76               	movwf	(CANSetFilter@filter+2)& (0+255),b
  1195  001DDA  0E00               	movlw	0
  1196  001DDC  6F77               	movwf	(CANSetFilter@filter+3)& (0+255),b
  1197  001DDE  C08C  F078         	movff	CANInitialize@FilterConfig1,CANSetFilter@type
  1198  001DE2  0E00               	movlw	0
  1199  001DE4  ECBD  F000         	call	_CANSetFilter
  1200                           
  1201                           ;inc\CANlib.h: 282: CANSetFilter(CAN_FILTER_B1_F2, 0, FilterConfig1);
  1202  001DE8  0E00               	movlw	0
  1203  001DEA  0100               	movlb	0	; () banked
  1204  001DEC  6F74               	movwf	CANSetFilter@filter& (0+255),b
  1205  001DEE  0E00               	movlw	0
  1206  001DF0  6F75               	movwf	(CANSetFilter@filter+1)& (0+255),b
  1207  001DF2  0E00               	movlw	0
  1208  001DF4  6F76               	movwf	(CANSetFilter@filter+2)& (0+255),b
  1209  001DF6  0E00               	movlw	0
  1210  001DF8  6F77               	movwf	(CANSetFilter@filter+3)& (0+255),b
  1211  001DFA  C08C  F078         	movff	CANInitialize@FilterConfig1,CANSetFilter@type
  1212  001DFE  0E01               	movlw	1
  1213  001E00  ECBD  F000         	call	_CANSetFilter
  1214                           
  1215                           ;inc\CANlib.h: 283: CANSetFilter(CAN_FILTER_B2_F1, 0, FilterConfig2);
  1216  001E04  0E00               	movlw	0
  1217  001E06  0100               	movlb	0	; () banked
  1218  001E08  6F74               	movwf	CANSetFilter@filter& (0+255),b
  1219  001E0A  0E00               	movlw	0
  1220  001E0C  6F75               	movwf	(CANSetFilter@filter+1)& (0+255),b
  1221  001E0E  0E00               	movlw	0
  1222  001E10  6F76               	movwf	(CANSetFilter@filter+2)& (0+255),b
  1223  001E12  0E00               	movlw	0
  1224  001E14  6F77               	movwf	(CANSetFilter@filter+3)& (0+255),b
  1225  001E16  C08D  F078         	movff	CANInitialize@FilterConfig2,CANSetFilter@type
  1226  001E1A  0E02               	movlw	2
  1227  001E1C  ECBD  F000         	call	_CANSetFilter
  1228                           
  1229                           ;inc\CANlib.h: 284: CANSetFilter(CAN_FILTER_B2_F2, 0, FilterConfig2);
  1230  001E20  0E00               	movlw	0
  1231  001E22  0100               	movlb	0	; () banked
  1232  001E24  6F74               	movwf	CANSetFilter@filter& (0+255),b
  1233  001E26  0E00               	movlw	0
  1234  001E28  6F75               	movwf	(CANSetFilter@filter+1)& (0+255),b
  1235  001E2A  0E00               	movlw	0
  1236  001E2C  6F76               	movwf	(CANSetFilter@filter+2)& (0+255),b
  1237  001E2E  0E00               	movlw	0
  1238  001E30  6F77               	movwf	(CANSetFilter@filter+3)& (0+255),b
  1239  001E32  C08D  F078         	movff	CANInitialize@FilterConfig2,CANSetFilter@type
  1240  001E36  0E03               	movlw	3
  1241  001E38  ECBD  F000         	call	_CANSetFilter
  1242                           
  1243                           ;inc\CANlib.h: 285: CANSetFilter(CAN_FILTER_B2_F3, 0, FilterConfig2);
  1244  001E3C  0E00               	movlw	0
  1245  001E3E  0100               	movlb	0	; () banked
  1246  001E40  6F74               	movwf	CANSetFilter@filter& (0+255),b
  1247  001E42  0E00               	movlw	0
  1248  001E44  6F75               	movwf	(CANSetFilter@filter+1)& (0+255),b
  1249  001E46  0E00               	movlw	0
  1250  001E48  6F76               	movwf	(CANSetFilter@filter+2)& (0+255),b
  1251  001E4A  0E00               	movlw	0
  1252  001E4C  6F77               	movwf	(CANSetFilter@filter+3)& (0+255),b
  1253  001E4E  C08D  F078         	movff	CANInitialize@FilterConfig2,CANSetFilter@type
  1254  001E52  0E04               	movlw	4
  1255  001E54  ECBD  F000         	call	_CANSetFilter
  1256                           
  1257                           ;inc\CANlib.h: 286: CANSetFilter(CAN_FILTER_B2_F4, 0, FilterConfig2);
  1258  001E58  0E00               	movlw	0
  1259  001E5A  0100               	movlb	0	; () banked
  1260  001E5C  6F74               	movwf	CANSetFilter@filter& (0+255),b
  1261  001E5E  0E00               	movlw	0
  1262  001E60  6F75               	movwf	(CANSetFilter@filter+1)& (0+255),b
  1263  001E62  0E00               	movlw	0
  1264  001E64  6F76               	movwf	(CANSetFilter@filter+2)& (0+255),b
  1265  001E66  0E00               	movlw	0
  1266  001E68  6F77               	movwf	(CANSetFilter@filter+3)& (0+255),b
  1267  001E6A  C08D  F078         	movff	CANInitialize@FilterConfig2,CANSetFilter@type
  1268  001E6E  0E05               	movlw	5
  1269  001E70  ECBD  F000         	call	_CANSetFilter
  1270                           
  1271                           ;inc\CANlib.h: 288: CANOperationMode(CAN_OP_MODE_NORMAL);
  1272  001E74  0E00               	movlw	0
  1273  001E76  ECB3  F010         	call	_CANOperationMode
  1274  001E7A  0012               	return		;funcret
  1275  001E7C                     __end_of_CANInitialize:
  1276                           	opt stack 0
  1277                           tblptru	equ	0xFF8
  1278                           tblptrh	equ	0xFF7
  1279                           tblptrl	equ	0xFF6
  1280                           tablat	equ	0xFF5
  1281                           intcon	equ	0xFF2
  1282                           intcon2	equ	0xFF1
  1283                           postinc0	equ	0xFEE
  1284                           wreg	equ	0xFE8
  1285                           status	equ	0xFD8
  1286                           
  1287 ;; *************** function _CANSetMask *****************
  1288 ;; Defined at:
  1289 ;;		line 641 in file "../../LaurTec_PIC_libraries_v_3.3.0/inc\CANlib.h"
  1290 ;; Parameters:    Size  Location     Type
  1291 ;;  numBuffer       1    wreg     enum E16349
  1292 ;;  mask            4   20[BANK0 ] unsigned long 
  1293 ;;  type            1   24[BANK0 ] enum E16315
  1294 ;; Auto vars:     Size  Location     Type
  1295 ;;  numBuffer       1   29[BANK0 ] enum E16349
  1296 ;;  tamp            4   30[BANK0 ] unsigned long 
  1297 ;; Return value:  Size  Location     Type
  1298 ;;		None               void
  1299 ;; Registers used:
  1300 ;;		wreg, status,2, status,0
  1301 ;; Tracked objects:
  1302 ;;		On entry : 0/0
  1303 ;;		On exit  : 0/0
  1304 ;;		Unchanged: 0/0
  1305 ;; Data sizes:     COMRAM   BANK0   BANK1   BANK2   BANK3   BANK4   BANK5   BANK6   BANK7   BANK8   BANK9  BANK10  BANK1
      +1  BANK12
  1306 ;;      Params:         0       5       0       0       0       0       0       0       0       0       0       0       
      +0       0
  1307 ;;      Locals:         0       5       0       0       0       0       0       0       0       0       0       0       
      +0       0
  1308 ;;      Temps:          0       4       0       0       0       0       0       0       0       0       0       0       
      +0       0
  1309 ;;      Totals:         0      14       0       0       0       0       0       0       0       0       0       0       
      +0       0
  1310 ;;Total ram usage:       14 bytes
  1311 ;; Hardware stack levels used:    1
  1312 ;; Hardware stack levels required when called:    4
  1313 ;; This function calls:
  1314 ;;		Nothing
  1315 ;; This function is called by:
  1316 ;;		_CANInitialize
  1317 ;; This function uses a non-reentrant model
  1318 ;;
  1319                           
  1320                           	psect	text3
  1321  001918                     __ptext3:
  1322                           	opt stack 0
  1323  001918                     _CANSetMask:
  1324                           	opt stack 24
  1325                           
  1326                           ;incstack = 0
  1327                           ;CANSetMask@numBuffer stored from wreg
  1328  001918  0100               	movlb	0	; () banked
  1329  00191A  6F7D               	movwf	CANSetMask@numBuffer& (0+255),b
  1330                           
  1331                           ;inc\CANlib.h: 644: if ((numBuffer ==CAN_MASK_B1) && (type == CAN_CONFIG_STD_MSG))
  1332  00191C  0100               	movlb	0	; () banked
  1333  00191E  057D               	decf	CANSetMask@numBuffer& (0+255),w,b
  1334  001920  A4D8               	btfss	status,2,c
  1335  001922  D056               	goto	l2374
  1336                           
  1337                           ; BSR set to: 0
  1338  001924  0100               	movlb	0	; () banked
  1339  001926  2978               	incf	CANSetMask@type& (0+255),w,b
  1340  001928  A4D8               	btfss	status,2,c
  1341  00192A  D052               	goto	l2374
  1342                           
  1343                           ; BSR set to: 0
  1344                           ;inc\CANlib.h: 645: {
  1345                           ;inc\CANlib.h: 646: tamp = (mask >> 3);
  1346  00192C  C074  F079         	movff	CANSetMask@mask,??_CANSetMask
  1347  001930  C075  F07A         	movff	CANSetMask@mask+1,??_CANSetMask+1
  1348  001934  C076  F07B         	movff	CANSetMask@mask+2,??_CANSetMask+2
  1349  001938  C077  F07C         	movff	CANSetMask@mask+3,??_CANSetMask+3
  1350  00193C  0E04               	movlw	4
  1351  00193E  D006               	goto	u1940
  1352  001940                     u1945:
  1353  001940  0100               	movlb	0	; () banked
  1354  001942  90D8               	bcf	status,0,c
  1355  001944  337C               	rrcf	(??_CANSetMask+3)& (0+255),f,b
  1356  001946  337B               	rrcf	(??_CANSetMask+2)& (0+255),f,b
  1357  001948  337A               	rrcf	(??_CANSetMask+1)& (0+255),f,b
  1358  00194A  3379               	rrcf	??_CANSetMask& (0+255),f,b
  1359  00194C                     u1940:
  1360  00194C  2EE8               	decfsz	wreg,f,c
  1361  00194E  D7F8               	goto	u1945
  1362  001950  C079  F07E         	movff	??_CANSetMask,CANSetMask@tamp
  1363  001954  C07A  F07F         	movff	??_CANSetMask+1,CANSetMask@tamp+1
  1364  001958  C07B  F080         	movff	??_CANSetMask+2,CANSetMask@tamp+2
  1365  00195C  C07C  F081         	movff	??_CANSetMask+3,CANSetMask@tamp+3
  1366                           
  1367                           ; BSR set to: 0
  1368                           ;inc\CANlib.h: 647: tamp = tamp & 0x000000FF;
  1369  001960  0100               	movlb	0	; () banked
  1370  001962  517E               	movf	CANSetMask@tamp& (0+255),w,b
  1371  001964  0100               	movlb	0	; () banked
  1372  001966  6F7E               	movwf	CANSetMask@tamp& (0+255),b
  1373  001968  6B7F               	clrf	(CANSetMask@tamp+1)& (0+255),b
  1374  00196A  6B80               	clrf	(CANSetMask@tamp+2)& (0+255),b
  1375  00196C  6B81               	clrf	(CANSetMask@tamp+3)& (0+255),b
  1376                           
  1377                           ; BSR set to: 0
  1378                           ;inc\CANlib.h: 648: RXM0SIDH = (unsigned char) tamp;
  1379  00196E  C07E  FF18         	movff	CANSetMask@tamp,3864	;volatile
  1380                           
  1381                           ; BSR set to: 0
  1382                           ;inc\CANlib.h: 650: tamp = mask & 0x00000007;
  1383  001972  0E07               	movlw	7
  1384  001974  0100               	movlb	0	; () banked
  1385  001976  1574               	andwf	CANSetMask@mask& (0+255),w,b
  1386  001978  0100               	movlb	0	; () banked
  1387  00197A  6F7E               	movwf	CANSetMask@tamp& (0+255),b
  1388  00197C  0E00               	movlw	0
  1389  00197E  0100               	movlb	0	; () banked
  1390  001980  1575               	andwf	(CANSetMask@mask+1)& (0+255),w,b
  1391  001982  0100               	movlb	0	; () banked
  1392  001984  6F7F               	movwf	(CANSetMask@tamp+1)& (0+255),b
  1393  001986  0E00               	movlw	0
  1394  001988  0100               	movlb	0	; () banked
  1395  00198A  1576               	andwf	(CANSetMask@mask+2)& (0+255),w,b
  1396  00198C  0100               	movlb	0	; () banked
  1397  00198E  6F80               	movwf	(CANSetMask@tamp+2)& (0+255),b
  1398  001990  0E00               	movlw	0
  1399  001992  0100               	movlb	0	; () banked
  1400  001994  1577               	andwf	(CANSetMask@mask+3)& (0+255),w,b
  1401  001996  0100               	movlb	0	; () banked
  1402  001998  6F81               	movwf	(CANSetMask@tamp+3)& (0+255),b
  1403                           
  1404                           ; BSR set to: 0
  1405                           ;inc\CANlib.h: 651: tamp = tamp << 5;
  1406  00199A  C07E  F079         	movff	CANSetMask@tamp,??_CANSetMask
  1407  00199E  C07F  F07A         	movff	CANSetMask@tamp+1,??_CANSetMask+1
  1408  0019A2  C080  F07B         	movff	CANSetMask@tamp+2,??_CANSetMask+2
  1409  0019A6  C081  F07C         	movff	CANSetMask@tamp+3,??_CANSetMask+3
  1410  0019AA  0E05               	movlw	5
  1411  0019AC                     u1955:
  1412  0019AC  90D8               	bcf	status,0,c
  1413  0019AE  0100               	movlb	0	; () banked
  1414  0019B0  3779               	rlcf	??_CANSetMask& (0+255),f,b
  1415  0019B2  377A               	rlcf	(??_CANSetMask+1)& (0+255),f,b
  1416  0019B4  377B               	rlcf	(??_CANSetMask+2)& (0+255),f,b
  1417  0019B6  377C               	rlcf	(??_CANSetMask+3)& (0+255),f,b
  1418  0019B8  2EE8               	decfsz	wreg,f,c
  1419  0019BA  D7F8               	goto	u1955
  1420  0019BC  C079  F07E         	movff	??_CANSetMask,CANSetMask@tamp
  1421  0019C0  C07A  F07F         	movff	??_CANSetMask+1,CANSetMask@tamp+1
  1422  0019C4  C07B  F080         	movff	??_CANSetMask+2,CANSetMask@tamp+2
  1423  0019C8  C07C  F081         	movff	??_CANSetMask+3,CANSetMask@tamp+3
  1424                           
  1425                           ; BSR set to: 0
  1426                           ;inc\CANlib.h: 652: RXM0SIDL = (unsigned char) tamp;
  1427  0019CC  C07E  FF19         	movff	CANSetMask@tamp,3865	;volatile
  1428  0019D0                     l2374:
  1429                           
  1430                           ; BSR set to: 0
  1431                           ;inc\CANlib.h: 653: }
  1432                           ;inc\CANlib.h: 655: if ((numBuffer ==CAN_MASK_B2) && (type == CAN_CONFIG_STD_MSG))
  1433  0019D0  0E02               	movlw	2
  1434  0019D2  0100               	movlb	0	; () banked
  1435  0019D4  197D               	xorwf	CANSetMask@numBuffer& (0+255),w,b
  1436  0019D6  A4D8               	btfss	status,2,c
  1437  0019D8  D056               	goto	l2390
  1438                           
  1439                           ; BSR set to: 0
  1440  0019DA  0100               	movlb	0	; () banked
  1441  0019DC  2978               	incf	CANSetMask@type& (0+255),w,b
  1442  0019DE  A4D8               	btfss	status,2,c
  1443  0019E0  D052               	goto	l2390
  1444                           
  1445                           ; BSR set to: 0
  1446                           ;inc\CANlib.h: 656: {
  1447                           ;inc\CANlib.h: 657: tamp = (mask >> 3);
  1448  0019E2  C074  F079         	movff	CANSetMask@mask,??_CANSetMask
  1449  0019E6  C075  F07A         	movff	CANSetMask@mask+1,??_CANSetMask+1
  1450  0019EA  C076  F07B         	movff	CANSetMask@mask+2,??_CANSetMask+2
  1451  0019EE  C077  F07C         	movff	CANSetMask@mask+3,??_CANSetMask+3
  1452  0019F2  0E04               	movlw	4
  1453  0019F4  D006               	goto	u1980
  1454  0019F6                     u1985:
  1455  0019F6  0100               	movlb	0	; () banked
  1456  0019F8  90D8               	bcf	status,0,c
  1457  0019FA  337C               	rrcf	(??_CANSetMask+3)& (0+255),f,b
  1458  0019FC  337B               	rrcf	(??_CANSetMask+2)& (0+255),f,b
  1459  0019FE  337A               	rrcf	(??_CANSetMask+1)& (0+255),f,b
  1460  001A00  3379               	rrcf	??_CANSetMask& (0+255),f,b
  1461  001A02                     u1980:
  1462  001A02  2EE8               	decfsz	wreg,f,c
  1463  001A04  D7F8               	goto	u1985
  1464  001A06  C079  F07E         	movff	??_CANSetMask,CANSetMask@tamp
  1465  001A0A  C07A  F07F         	movff	??_CANSetMask+1,CANSetMask@tamp+1
  1466  001A0E  C07B  F080         	movff	??_CANSetMask+2,CANSetMask@tamp+2
  1467  001A12  C07C  F081         	movff	??_CANSetMask+3,CANSetMask@tamp+3
  1468                           
  1469                           ; BSR set to: 0
  1470                           ;inc\CANlib.h: 658: tamp = tamp & 0x000000FF;
  1471  001A16  0100               	movlb	0	; () banked
  1472  001A18  517E               	movf	CANSetMask@tamp& (0+255),w,b
  1473  001A1A  0100               	movlb	0	; () banked
  1474  001A1C  6F7E               	movwf	CANSetMask@tamp& (0+255),b
  1475  001A1E  6B7F               	clrf	(CANSetMask@tamp+1)& (0+255),b
  1476  001A20  6B80               	clrf	(CANSetMask@tamp+2)& (0+255),b
  1477  001A22  6B81               	clrf	(CANSetMask@tamp+3)& (0+255),b
  1478                           
  1479                           ; BSR set to: 0
  1480                           ;inc\CANlib.h: 659: RXM1SIDH = (unsigned char) tamp;
  1481  001A24  C07E  FF1C         	movff	CANSetMask@tamp,3868	;volatile
  1482                           
  1483                           ; BSR set to: 0
  1484                           ;inc\CANlib.h: 661: tamp = mask & 0x00000007;
  1485  001A28  0E07               	movlw	7
  1486  001A2A  0100               	movlb	0	; () banked
  1487  001A2C  1574               	andwf	CANSetMask@mask& (0+255),w,b
  1488  001A2E  0100               	movlb	0	; () banked
  1489  001A30  6F7E               	movwf	CANSetMask@tamp& (0+255),b
  1490  001A32  0E00               	movlw	0
  1491  001A34  0100               	movlb	0	; () banked
  1492  001A36  1575               	andwf	(CANSetMask@mask+1)& (0+255),w,b
  1493  001A38  0100               	movlb	0	; () banked
  1494  001A3A  6F7F               	movwf	(CANSetMask@tamp+1)& (0+255),b
  1495  001A3C  0E00               	movlw	0
  1496  001A3E  0100               	movlb	0	; () banked
  1497  001A40  1576               	andwf	(CANSetMask@mask+2)& (0+255),w,b
  1498  001A42  0100               	movlb	0	; () banked
  1499  001A44  6F80               	movwf	(CANSetMask@tamp+2)& (0+255),b
  1500  001A46  0E00               	movlw	0
  1501  001A48  0100               	movlb	0	; () banked
  1502  001A4A  1577               	andwf	(CANSetMask@mask+3)& (0+255),w,b
  1503  001A4C  0100               	movlb	0	; () banked
  1504  001A4E  6F81               	movwf	(CANSetMask@tamp+3)& (0+255),b
  1505                           
  1506                           ; BSR set to: 0
  1507                           ;inc\CANlib.h: 662: tamp = tamp << 5;
  1508  001A50  C07E  F079         	movff	CANSetMask@tamp,??_CANSetMask
  1509  001A54  C07F  F07A         	movff	CANSetMask@tamp+1,??_CANSetMask+1
  1510  001A58  C080  F07B         	movff	CANSetMask@tamp+2,??_CANSetMask+2
  1511  001A5C  C081  F07C         	movff	CANSetMask@tamp+3,??_CANSetMask+3
  1512  001A60  0E05               	movlw	5
  1513  001A62                     u1995:
  1514  001A62  90D8               	bcf	status,0,c
  1515  001A64  0100               	movlb	0	; () banked
  1516  001A66  3779               	rlcf	??_CANSetMask& (0+255),f,b
  1517  001A68  377A               	rlcf	(??_CANSetMask+1)& (0+255),f,b
  1518  001A6A  377B               	rlcf	(??_CANSetMask+2)& (0+255),f,b
  1519  001A6C  377C               	rlcf	(??_CANSetMask+3)& (0+255),f,b
  1520  001A6E  2EE8               	decfsz	wreg,f,c
  1521  001A70  D7F8               	goto	u1995
  1522  001A72  C079  F07E         	movff	??_CANSetMask,CANSetMask@tamp
  1523  001A76  C07A  F07F         	movff	??_CANSetMask+1,CANSetMask@tamp+1
  1524  001A7A  C07B  F080         	movff	??_CANSetMask+2,CANSetMask@tamp+2
  1525  001A7E  C07C  F081         	movff	??_CANSetMask+3,CANSetMask@tamp+3
  1526                           
  1527                           ; BSR set to: 0
  1528                           ;inc\CANlib.h: 663: RXM1SIDL = (unsigned char) tamp;
  1529  001A82  C07E  FF1D         	movff	CANSetMask@tamp,3869	;volatile
  1530  001A86                     l2390:
  1531                           
  1532                           ; BSR set to: 0
  1533                           ;inc\CANlib.h: 664: }
  1534                           ;inc\CANlib.h: 666: if ((numBuffer ==CAN_MASK_B1) && (type == CAN_CONFIG_XTD_MSG))
  1535  001A86  0100               	movlb	0	; () banked
  1536  001A88  057D               	decf	CANSetMask@numBuffer& (0+255),w,b
  1537  001A8A  A4D8               	btfss	status,2,c
  1538  001A8C  D087               	goto	l2422
  1539                           
  1540                           ; BSR set to: 0
  1541  001A8E  0EF7               	movlw	247
  1542  001A90  0100               	movlb	0	; () banked
  1543  001A92  1978               	xorwf	CANSetMask@type& (0+255),w,b
  1544  001A94  A4D8               	btfss	status,2,c
  1545  001A96  D082               	goto	l2422
  1546                           
  1547                           ; BSR set to: 0
  1548                           ;inc\CANlib.h: 667: {
  1549                           ;inc\CANlib.h: 668: tamp = mask & 0x000000FF;
  1550  001A98  0100               	movlb	0	; () banked
  1551  001A9A  5174               	movf	CANSetMask@mask& (0+255),w,b
  1552  001A9C  0100               	movlb	0	; () banked
  1553  001A9E  6F7E               	movwf	CANSetMask@tamp& (0+255),b
  1554  001AA0  6B7F               	clrf	(CANSetMask@tamp+1)& (0+255),b
  1555  001AA2  6B80               	clrf	(CANSetMask@tamp+2)& (0+255),b
  1556  001AA4  6B81               	clrf	(CANSetMask@tamp+3)& (0+255),b
  1557                           
  1558                           ; BSR set to: 0
  1559                           ;inc\CANlib.h: 669: RXM0EIDL = (unsigned char) tamp;
  1560  001AA6  C07E  FF1B         	movff	CANSetMask@tamp,3867	;volatile
  1561                           
  1562                           ; BSR set to: 0
  1563                           ;inc\CANlib.h: 671: tamp = mask & 0x0000FF00;
  1564  001AAA  0E00               	movlw	0
  1565  001AAC  0100               	movlb	0	; () banked
  1566  001AAE  1574               	andwf	CANSetMask@mask& (0+255),w,b
  1567  001AB0  0100               	movlb	0	; () banked
  1568  001AB2  6F7E               	movwf	CANSetMask@tamp& (0+255),b
  1569  001AB4  0EFF               	movlw	255
  1570  001AB6  0100               	movlb	0	; () banked
  1571  001AB8  1575               	andwf	(CANSetMask@mask+1)& (0+255),w,b
  1572  001ABA  0100               	movlb	0	; () banked
  1573  001ABC  6F7F               	movwf	(CANSetMask@tamp+1)& (0+255),b
  1574  001ABE  0E00               	movlw	0
  1575  001AC0  0100               	movlb	0	; () banked
  1576  001AC2  1576               	andwf	(CANSetMask@mask+2)& (0+255),w,b
  1577  001AC4  0100               	movlb	0	; () banked
  1578  001AC6  6F80               	movwf	(CANSetMask@tamp+2)& (0+255),b
  1579  001AC8  0E00               	movlw	0
  1580  001ACA  0100               	movlb	0	; () banked
  1581  001ACC  1577               	andwf	(CANSetMask@mask+3)& (0+255),w,b
  1582  001ACE  0100               	movlb	0	; () banked
  1583  001AD0  6F81               	movwf	(CANSetMask@tamp+3)& (0+255),b
  1584                           
  1585                           ; BSR set to: 0
  1586                           ;inc\CANlib.h: 672: tamp = tamp >> 8;
  1587  001AD2  C07E  F079         	movff	CANSetMask@tamp,??_CANSetMask
  1588  001AD6  C07F  F07A         	movff	CANSetMask@tamp+1,??_CANSetMask+1
  1589  001ADA  C080  F07B         	movff	CANSetMask@tamp+2,??_CANSetMask+2
  1590  001ADE  C081  F07C         	movff	CANSetMask@tamp+3,??_CANSetMask+3
  1591  001AE2  C07A  F079         	movff	??_CANSetMask+1,??_CANSetMask
  1592  001AE6  C07B  F07A         	movff	??_CANSetMask+2,??_CANSetMask+1
  1593  001AEA  C07C  F07B         	movff	??_CANSetMask+3,??_CANSetMask+2
  1594  001AEE  0100               	movlb	0	; () banked
  1595  001AF0  6B7C               	clrf	(??_CANSetMask+3)& (0+255),b
  1596  001AF2  C079  F07E         	movff	??_CANSetMask,CANSetMask@tamp
  1597  001AF6  C07A  F07F         	movff	??_CANSetMask+1,CANSetMask@tamp+1
  1598  001AFA  C07B  F080         	movff	??_CANSetMask+2,CANSetMask@tamp+2
  1599  001AFE  C07C  F081         	movff	??_CANSetMask+3,CANSetMask@tamp+3
  1600                           
  1601                           ; BSR set to: 0
  1602                           ;inc\CANlib.h: 673: RXM0EIDH = (unsigned char) tamp;
  1603  001B02  C07E  FF1A         	movff	CANSetMask@tamp,3866	;volatile
  1604                           
  1605                           ; BSR set to: 0
  1606                           ;inc\CANlib.h: 675: if (mask & 0x00010000)
  1607  001B06  0100               	movlb	0	; () banked
  1608  001B08  A176               	btfss	(CANSetMask@mask+2)& (0+255),0,b
  1609  001B0A  D003               	goto	l408
  1610                           
  1611                           ; BSR set to: 0
  1612                           ;inc\CANlib.h: 676: RXM0SIDLbits.EID16 = 0x01;
  1613  001B0C  010F               	movlb	15	; () banked
  1614  001B0E  8119               	bsf	25,0,b	;volatile
  1615  001B10  D002               	goto	l409
  1616  001B12                     l408:
  1617                           
  1618                           ; BSR set to: 0
  1619                           ;inc\CANlib.h: 677: else
  1620                           ;inc\CANlib.h: 678: RXM0SIDLbits.EID16 = 0x00;
  1621  001B12  010F               	movlb	15	; () banked
  1622  001B14  9119               	bcf	25,0,b	;volatile
  1623  001B16                     l409:
  1624                           
  1625                           ; BSR set to: 15
  1626                           ;inc\CANlib.h: 680: if (mask & 0x00020000)
  1627  001B16  0100               	movlb	0	; () banked
  1628  001B18  A376               	btfss	(CANSetMask@mask+2)& (0+255),1,b
  1629  001B1A  D003               	goto	l410
  1630                           
  1631                           ; BSR set to: 0
  1632                           ;inc\CANlib.h: 681: RXM0SIDLbits.EID17 = 0x01;
  1633  001B1C  010F               	movlb	15	; () banked
  1634  001B1E  8319               	bsf	25,1,b	;volatile
  1635  001B20  D002               	goto	l411
  1636  001B22                     l410:
  1637                           
  1638                           ; BSR set to: 0
  1639                           ;inc\CANlib.h: 682: else
  1640                           ;inc\CANlib.h: 683: RXM0SIDLbits.EID17 = 0x00;
  1641  001B22  010F               	movlb	15	; () banked
  1642  001B24  9319               	bcf	25,1,b	;volatile
  1643  001B26                     l411:
  1644                           
  1645                           ; BSR set to: 15
  1646                           ;inc\CANlib.h: 685: if (mask & 0x00040000)
  1647  001B26  0100               	movlb	0	; () banked
  1648  001B28  A576               	btfss	(CANSetMask@mask+2)& (0+255),2,b
  1649  001B2A  D003               	goto	l412
  1650                           
  1651                           ; BSR set to: 0
  1652                           ;inc\CANlib.h: 686: RXM0SIDLbits.SID0 = 0x01;
  1653  001B2C  010F               	movlb	15	; () banked
  1654  001B2E  8B19               	bsf	25,5,b	;volatile
  1655  001B30  D002               	goto	l413
  1656  001B32                     l412:
  1657                           
  1658                           ; BSR set to: 0
  1659                           ;inc\CANlib.h: 687: else
  1660                           ;inc\CANlib.h: 688: RXM0SIDLbits.SID0 = 0x00;
  1661  001B32  010F               	movlb	15	; () banked
  1662  001B34  9B19               	bcf	25,5,b	;volatile
  1663  001B36                     l413:
  1664                           
  1665                           ; BSR set to: 15
  1666                           ;inc\CANlib.h: 690: if (mask & 0x00080000)
  1667  001B36  0100               	movlb	0	; () banked
  1668  001B38  A776               	btfss	(CANSetMask@mask+2)& (0+255),3,b
  1669  001B3A  D003               	goto	l414
  1670                           
  1671                           ; BSR set to: 0
  1672                           ;inc\CANlib.h: 691: RXM0SIDLbits.SID1 = 0x01;
  1673  001B3C  010F               	movlb	15	; () banked
  1674  001B3E  8D19               	bsf	25,6,b	;volatile
  1675  001B40  D002               	goto	l415
  1676  001B42                     l414:
  1677                           
  1678                           ; BSR set to: 0
  1679                           ;inc\CANlib.h: 692: else
  1680                           ;inc\CANlib.h: 693: RXM0SIDLbits.SID1 = 0x00;
  1681  001B42  010F               	movlb	15	; () banked
  1682  001B44  9D19               	bcf	25,6,b	;volatile
  1683  001B46                     l415:
  1684                           
  1685                           ; BSR set to: 15
  1686                           ;inc\CANlib.h: 695: if (mask & 0x00100000)
  1687  001B46  0100               	movlb	0	; () banked
  1688  001B48  A976               	btfss	(CANSetMask@mask+2)& (0+255),4,b
  1689  001B4A  D003               	goto	l416
  1690                           
  1691                           ; BSR set to: 0
  1692                           ;inc\CANlib.h: 696: RXM0SIDLbits.SID2 = 0x01 ;
  1693  001B4C  010F               	movlb	15	; () banked
  1694  001B4E  8F19               	bsf	25,7,b	;volatile
  1695  001B50  D002               	goto	l2416
  1696  001B52                     l416:
  1697                           
  1698                           ; BSR set to: 0
  1699                           ;inc\CANlib.h: 697: else
  1700                           ;inc\CANlib.h: 698: RXM0SIDLbits.SID2 = 0x00 ;
  1701  001B52  010F               	movlb	15	; () banked
  1702  001B54  9F19               	bcf	25,7,b	;volatile
  1703  001B56                     l2416:
  1704                           
  1705                           ; BSR set to: 15
  1706                           ;inc\CANlib.h: 700: tamp = (mask >> 21);
  1707  001B56  C074  F079         	movff	CANSetMask@mask,??_CANSetMask
  1708  001B5A  C075  F07A         	movff	CANSetMask@mask+1,??_CANSetMask+1
  1709  001B5E  C076  F07B         	movff	CANSetMask@mask+2,??_CANSetMask+2
  1710  001B62  C077  F07C         	movff	CANSetMask@mask+3,??_CANSetMask+3
  1711  001B66  0E16               	movlw	22
  1712  001B68  D006               	goto	u2070
  1713  001B6A                     u2075:
  1714  001B6A  0100               	movlb	0	; () banked
  1715  001B6C  90D8               	bcf	status,0,c
  1716  001B6E  337C               	rrcf	(??_CANSetMask+3)& (0+255),f,b
  1717  001B70  337B               	rrcf	(??_CANSetMask+2)& (0+255),f,b
  1718  001B72  337A               	rrcf	(??_CANSetMask+1)& (0+255),f,b
  1719  001B74  3379               	rrcf	??_CANSetMask& (0+255),f,b
  1720  001B76                     u2070:
  1721  001B76  2EE8               	decfsz	wreg,f,c
  1722  001B78  D7F8               	goto	u2075
  1723  001B7A  C079  F07E         	movff	??_CANSetMask,CANSetMask@tamp
  1724  001B7E  C07A  F07F         	movff	??_CANSetMask+1,CANSetMask@tamp+1
  1725  001B82  C07B  F080         	movff	??_CANSetMask+2,CANSetMask@tamp+2
  1726  001B86  C07C  F081         	movff	??_CANSetMask+3,CANSetMask@tamp+3
  1727                           
  1728                           ; BSR set to: 0
  1729                           ;inc\CANlib.h: 701: tamp = tamp & 0x000000FF;
  1730  001B8A  0100               	movlb	0	; () banked
  1731  001B8C  517E               	movf	CANSetMask@tamp& (0+255),w,b
  1732  001B8E  0100               	movlb	0	; () banked
  1733  001B90  6F7E               	movwf	CANSetMask@tamp& (0+255),b
  1734  001B92  6B7F               	clrf	(CANSetMask@tamp+1)& (0+255),b
  1735  001B94  6B80               	clrf	(CANSetMask@tamp+2)& (0+255),b
  1736  001B96  6B81               	clrf	(CANSetMask@tamp+3)& (0+255),b
  1737                           
  1738                           ; BSR set to: 0
  1739                           ;inc\CANlib.h: 702: RXM0SIDH = (unsigned char) tamp;
  1740  001B98  C07E  FF18         	movff	CANSetMask@tamp,3864	;volatile
  1741  001B9C                     l2422:
  1742                           
  1743                           ; BSR set to: 0
  1744                           ;inc\CANlib.h: 703: }
  1745                           ;inc\CANlib.h: 705: if ((numBuffer ==CAN_MASK_B2) && (type == CAN_CONFIG_XTD_MSG))
  1746  001B9C  0E02               	movlw	2
  1747  001B9E  0100               	movlb	0	; () banked
  1748  001BA0  197D               	xorwf	CANSetMask@numBuffer& (0+255),w,b
  1749  001BA2  A4D8               	btfss	status,2,c
  1750  001BA4  0012               	return	
  1751                           
  1752                           ; BSR set to: 0
  1753  001BA6  0EF7               	movlw	247
  1754  001BA8  0100               	movlb	0	; () banked
  1755  001BAA  1978               	xorwf	CANSetMask@type& (0+255),w,b
  1756  001BAC  A4D8               	btfss	status,2,c
  1757  001BAE  0012               	return	
  1758                           
  1759                           ; BSR set to: 0
  1760                           ;inc\CANlib.h: 706: {
  1761                           ;inc\CANlib.h: 707: tamp = mask & 0x000000FF;
  1762  001BB0  0100               	movlb	0	; () banked
  1763  001BB2  5174               	movf	CANSetMask@mask& (0+255),w,b
  1764  001BB4  0100               	movlb	0	; () banked
  1765  001BB6  6F7E               	movwf	CANSetMask@tamp& (0+255),b
  1766  001BB8  6B7F               	clrf	(CANSetMask@tamp+1)& (0+255),b
  1767  001BBA  6B80               	clrf	(CANSetMask@tamp+2)& (0+255),b
  1768  001BBC  6B81               	clrf	(CANSetMask@tamp+3)& (0+255),b
  1769                           
  1770                           ; BSR set to: 0
  1771                           ;inc\CANlib.h: 708: RXM1EIDL = (unsigned char) tamp;
  1772  001BBE  C07E  FF1F         	movff	CANSetMask@tamp,3871	;volatile
  1773                           
  1774                           ; BSR set to: 0
  1775                           ;inc\CANlib.h: 710: tamp = mask & 0x0000FF00;
  1776  001BC2  0E00               	movlw	0
  1777  001BC4  0100               	movlb	0	; () banked
  1778  001BC6  1574               	andwf	CANSetMask@mask& (0+255),w,b
  1779  001BC8  0100               	movlb	0	; () banked
  1780  001BCA  6F7E               	movwf	CANSetMask@tamp& (0+255),b
  1781  001BCC  0EFF               	movlw	255
  1782  001BCE  0100               	movlb	0	; () banked
  1783  001BD0  1575               	andwf	(CANSetMask@mask+1)& (0+255),w,b
  1784  001BD2  0100               	movlb	0	; () banked
  1785  001BD4  6F7F               	movwf	(CANSetMask@tamp+1)& (0+255),b
  1786  001BD6  0E00               	movlw	0
  1787  001BD8  0100               	movlb	0	; () banked
  1788  001BDA  1576               	andwf	(CANSetMask@mask+2)& (0+255),w,b
  1789  001BDC  0100               	movlb	0	; () banked
  1790  001BDE  6F80               	movwf	(CANSetMask@tamp+2)& (0+255),b
  1791  001BE0  0E00               	movlw	0
  1792  001BE2  0100               	movlb	0	; () banked
  1793  001BE4  1577               	andwf	(CANSetMask@mask+3)& (0+255),w,b
  1794  001BE6  0100               	movlb	0	; () banked
  1795  001BE8  6F81               	movwf	(CANSetMask@tamp+3)& (0+255),b
  1796                           
  1797                           ; BSR set to: 0
  1798                           ;inc\CANlib.h: 711: tamp = tamp >> 8;
  1799  001BEA  C07E  F079         	movff	CANSetMask@tamp,??_CANSetMask
  1800  001BEE  C07F  F07A         	movff	CANSetMask@tamp+1,??_CANSetMask+1
  1801  001BF2  C080  F07B         	movff	CANSetMask@tamp+2,??_CANSetMask+2
  1802  001BF6  C081  F07C         	movff	CANSetMask@tamp+3,??_CANSetMask+3
  1803  001BFA  C07A  F079         	movff	??_CANSetMask+1,??_CANSetMask
  1804  001BFE  C07B  F07A         	movff	??_CANSetMask+2,??_CANSetMask+1
  1805  001C02  C07C  F07B         	movff	??_CANSetMask+3,??_CANSetMask+2
  1806  001C06  0100               	movlb	0	; () banked
  1807  001C08  6B7C               	clrf	(??_CANSetMask+3)& (0+255),b
  1808  001C0A  C079  F07E         	movff	??_CANSetMask,CANSetMask@tamp
  1809  001C0E  C07A  F07F         	movff	??_CANSetMask+1,CANSetMask@tamp+1
  1810  001C12  C07B  F080         	movff	??_CANSetMask+2,CANSetMask@tamp+2
  1811  001C16  C07C  F081         	movff	??_CANSetMask+3,CANSetMask@tamp+3
  1812                           
  1813                           ; BSR set to: 0
  1814                           ;inc\CANlib.h: 712: RXM1EIDH = (unsigned char) tamp;
  1815  001C1A  C07E  FF1E         	movff	CANSetMask@tamp,3870	;volatile
  1816                           
  1817                           ; BSR set to: 0
  1818                           ;inc\CANlib.h: 714: if (mask & 0x00010000)
  1819  001C1E  0100               	movlb	0	; () banked
  1820  001C20  A176               	btfss	(CANSetMask@mask+2)& (0+255),0,b
  1821  001C22  D003               	goto	l419
  1822                           
  1823                           ; BSR set to: 0
  1824                           ;inc\CANlib.h: 715: RXM1SIDLbits.EID16 = 0x01;
  1825  001C24  010F               	movlb	15	; () banked
  1826  001C26  811D               	bsf	29,0,b	;volatile
  1827  001C28  D002               	goto	l420
  1828  001C2A                     l419:
  1829                           
  1830                           ; BSR set to: 0
  1831                           ;inc\CANlib.h: 716: else
  1832                           ;inc\CANlib.h: 717: RXM1SIDLbits.EID16 = 0x00;
  1833  001C2A  010F               	movlb	15	; () banked
  1834  001C2C  911D               	bcf	29,0,b	;volatile
  1835  001C2E                     l420:
  1836                           
  1837                           ; BSR set to: 15
  1838                           ;inc\CANlib.h: 719: if (mask & 0x00020000)
  1839  001C2E  0100               	movlb	0	; () banked
  1840  001C30  A376               	btfss	(CANSetMask@mask+2)& (0+255),1,b
  1841  001C32  D003               	goto	l421
  1842                           
  1843                           ; BSR set to: 0
  1844                           ;inc\CANlib.h: 720: RXM1SIDLbits.EID17 = 0x01;
  1845  001C34  010F               	movlb	15	; () banked
  1846  001C36  831D               	bsf	29,1,b	;volatile
  1847  001C38  D002               	goto	l422
  1848  001C3A                     l421:
  1849                           
  1850                           ; BSR set to: 0
  1851                           ;inc\CANlib.h: 721: else
  1852                           ;inc\CANlib.h: 722: RXM1SIDLbits.EID17 = 0x00;
  1853  001C3A  010F               	movlb	15	; () banked
  1854  001C3C  931D               	bcf	29,1,b	;volatile
  1855  001C3E                     l422:
  1856                           
  1857                           ; BSR set to: 15
  1858                           ;inc\CANlib.h: 724: if (mask & 0x00040000)
  1859  001C3E  0100               	movlb	0	; () banked
  1860  001C40  A576               	btfss	(CANSetMask@mask+2)& (0+255),2,b
  1861  001C42  D003               	goto	l423
  1862                           
  1863                           ; BSR set to: 0
  1864                           ;inc\CANlib.h: 725: RXM1SIDLbits.SID0 = 0x01;
  1865  001C44  010F               	movlb	15	; () banked
  1866  001C46  8B1D               	bsf	29,5,b	;volatile
  1867  001C48  D002               	goto	l424
  1868  001C4A                     l423:
  1869                           
  1870                           ; BSR set to: 0
  1871                           ;inc\CANlib.h: 726: else
  1872                           ;inc\CANlib.h: 727: RXM1SIDLbits.SID0 = 0x00;
  1873  001C4A  010F               	movlb	15	; () banked
  1874  001C4C  9B1D               	bcf	29,5,b	;volatile
  1875  001C4E                     l424:
  1876                           
  1877                           ; BSR set to: 15
  1878                           ;inc\CANlib.h: 729: if (mask & 0x00080000)
  1879  001C4E  0100               	movlb	0	; () banked
  1880  001C50  A776               	btfss	(CANSetMask@mask+2)& (0+255),3,b
  1881  001C52  D003               	goto	l425
  1882                           
  1883                           ; BSR set to: 0
  1884                           ;inc\CANlib.h: 730: RXM1SIDLbits.SID1 = 0x01;
  1885  001C54  010F               	movlb	15	; () banked
  1886  001C56  8D1D               	bsf	29,6,b	;volatile
  1887  001C58  D002               	goto	l426
  1888  001C5A                     l425:
  1889                           
  1890                           ; BSR set to: 0
  1891                           ;inc\CANlib.h: 731: else
  1892                           ;inc\CANlib.h: 732: RXM1SIDLbits.SID1 = 0x00;
  1893  001C5A  010F               	movlb	15	; () banked
  1894  001C5C  9D1D               	bcf	29,6,b	;volatile
  1895  001C5E                     l426:
  1896                           
  1897                           ; BSR set to: 15
  1898                           ;inc\CANlib.h: 734: if (mask & 0x00100000)
  1899  001C5E  0100               	movlb	0	; () banked
  1900  001C60  A976               	btfss	(CANSetMask@mask+2)& (0+255),4,b
  1901  001C62  D003               	goto	l427
  1902                           
  1903                           ; BSR set to: 0
  1904                           ;inc\CANlib.h: 735: RXM1SIDLbits.SID2 = 0x01 ;
  1905  001C64  010F               	movlb	15	; () banked
  1906  001C66  8F1D               	bsf	29,7,b	;volatile
  1907  001C68  D002               	goto	l2448
  1908  001C6A                     l427:
  1909                           
  1910                           ; BSR set to: 0
  1911                           ;inc\CANlib.h: 736: else
  1912                           ;inc\CANlib.h: 737: RXM1SIDLbits.SID2 = 0x00 ;
  1913  001C6A  010F               	movlb	15	; () banked
  1914  001C6C  9F1D               	bcf	29,7,b	;volatile
  1915  001C6E                     l2448:
  1916                           
  1917                           ; BSR set to: 15
  1918                           ;inc\CANlib.h: 739: tamp = (mask >> 21);
  1919  001C6E  C074  F079         	movff	CANSetMask@mask,??_CANSetMask
  1920  001C72  C075  F07A         	movff	CANSetMask@mask+1,??_CANSetMask+1
  1921  001C76  C076  F07B         	movff	CANSetMask@mask+2,??_CANSetMask+2
  1922  001C7A  C077  F07C         	movff	CANSetMask@mask+3,??_CANSetMask+3
  1923  001C7E  0E16               	movlw	22
  1924  001C80  D006               	goto	u2150
  1925  001C82                     u2155:
  1926  001C82  0100               	movlb	0	; () banked
  1927  001C84  90D8               	bcf	status,0,c
  1928  001C86  337C               	rrcf	(??_CANSetMask+3)& (0+255),f,b
  1929  001C88  337B               	rrcf	(??_CANSetMask+2)& (0+255),f,b
  1930  001C8A  337A               	rrcf	(??_CANSetMask+1)& (0+255),f,b
  1931  001C8C  3379               	rrcf	??_CANSetMask& (0+255),f,b
  1932  001C8E                     u2150:
  1933  001C8E  2EE8               	decfsz	wreg,f,c
  1934  001C90  D7F8               	goto	u2155
  1935  001C92  C079  F07E         	movff	??_CANSetMask,CANSetMask@tamp
  1936  001C96  C07A  F07F         	movff	??_CANSetMask+1,CANSetMask@tamp+1
  1937  001C9A  C07B  F080         	movff	??_CANSetMask+2,CANSetMask@tamp+2
  1938  001C9E  C07C  F081         	movff	??_CANSetMask+3,CANSetMask@tamp+3
  1939                           
  1940                           ; BSR set to: 0
  1941                           ;inc\CANlib.h: 740: tamp = tamp & 0x000000FF;
  1942  001CA2  0100               	movlb	0	; () banked
  1943  001CA4  517E               	movf	CANSetMask@tamp& (0+255),w,b
  1944  001CA6  0100               	movlb	0	; () banked
  1945  001CA8  6F7E               	movwf	CANSetMask@tamp& (0+255),b
  1946  001CAA  6B7F               	clrf	(CANSetMask@tamp+1)& (0+255),b
  1947  001CAC  6B80               	clrf	(CANSetMask@tamp+2)& (0+255),b
  1948  001CAE  6B81               	clrf	(CANSetMask@tamp+3)& (0+255),b
  1949                           
  1950                           ; BSR set to: 0
  1951                           ;inc\CANlib.h: 741: RXM1SIDH = (unsigned char) tamp;
  1952  001CB0  C07E  FF1C         	movff	CANSetMask@tamp,3868	;volatile
  1953  001CB4  0012               	return	
  1954  001CB6                     __end_of_CANSetMask:
  1955                           	opt stack 0
  1956                           tblptru	equ	0xFF8
  1957                           tblptrh	equ	0xFF7
  1958                           tblptrl	equ	0xFF6
  1959                           tablat	equ	0xFF5
  1960                           intcon	equ	0xFF2
  1961                           intcon2	equ	0xFF1
  1962                           postinc0	equ	0xFEE
  1963                           wreg	equ	0xFE8
  1964                           status	equ	0xFD8
  1965                           
  1966 ;; *************** function _CANSetFilter *****************
  1967 ;; Defined at:
  1968 ;;		line 749 in file "../../LaurTec_PIC_libraries_v_3.3.0/inc\CANlib.h"
  1969 ;; Parameters:    Size  Location     Type
  1970 ;;  numBuffer       1    wreg     enum E16352
  1971 ;;  filter          4   20[BANK0 ] unsigned long 
  1972 ;;  type            1   24[BANK0 ] enum E16315
  1973 ;; Auto vars:     Size  Location     Type
  1974 ;;  numBuffer       1   29[BANK0 ] enum E16352
  1975 ;;  tamp            4   30[BANK0 ] unsigned long 
  1976 ;; Return value:  Size  Location     Type
  1977 ;;		None               void
  1978 ;; Registers used:
  1979 ;;		wreg, status,2, status,0
  1980 ;; Tracked objects:
  1981 ;;		On entry : 0/0
  1982 ;;		On exit  : 0/0
  1983 ;;		Unchanged: 0/0
  1984 ;; Data sizes:     COMRAM   BANK0   BANK1   BANK2   BANK3   BANK4   BANK5   BANK6   BANK7   BANK8   BANK9  BANK10  BANK1
      +1  BANK12
  1985 ;;      Params:         0       5       0       0       0       0       0       0       0       0       0       0       
      +0       0
  1986 ;;      Locals:         0       5       0       0       0       0       0       0       0       0       0       0       
      +0       0
  1987 ;;      Temps:          0       4       0       0       0       0       0       0       0       0       0       0       
      +0       0
  1988 ;;      Totals:         0      14       0       0       0       0       0       0       0       0       0       0       
      +0       0
  1989 ;;Total ram usage:       14 bytes
  1990 ;; Hardware stack levels used:    1
  1991 ;; Hardware stack levels required when called:    4
  1992 ;; This function calls:
  1993 ;;		Nothing
  1994 ;; This function is called by:
  1995 ;;		_CANInitialize
  1996 ;; This function uses a non-reentrant model
  1997 ;;
  1998                           
  1999                           	psect	text4
  2000  00017A                     __ptext4:
  2001                           	opt stack 0
  2002  00017A                     _CANSetFilter:
  2003                           	opt stack 24
  2004                           
  2005                           ; BSR set to: 0
  2006                           ;incstack = 0
  2007                           ;CANSetFilter@numBuffer stored from wreg
  2008  00017A  0100               	movlb	0	; () banked
  2009  00017C  6F7D               	movwf	CANSetFilter@numBuffer& (0+255),b
  2010                           
  2011                           ;inc\CANlib.h: 751: unsigned long tamp;
  2012                           ;inc\CANlib.h: 753: if ((numBuffer ==CAN_FILTER_B1_F1) && (type == CAN_CONFIG_STD_MSG))
  2013  00017E  0100               	movlb	0	; () banked
  2014  000180  517D               	movf	CANSetFilter@numBuffer& (0+255),w,b
  2015  000182  0100               	movlb	0	; () banked
  2016  000184  A4D8               	btfss	status,2,c
  2017  000186  D058               	goto	l2472
  2018                           
  2019                           ; BSR set to: 0
  2020  000188  0100               	movlb	0	; () banked
  2021  00018A  2978               	incf	CANSetFilter@type& (0+255),w,b
  2022  00018C  A4D8               	btfss	status,2,c
  2023  00018E  D054               	goto	l2472
  2024                           
  2025                           ; BSR set to: 0
  2026                           ;inc\CANlib.h: 754: {
  2027                           ;inc\CANlib.h: 755: RXF0SIDLbits.EXIDEN = 0x00;
  2028  000190  010F               	movlb	15	; () banked
  2029  000192  9701               	bcf	1,3,b	;volatile
  2030                           
  2031                           ; BSR set to: 15
  2032                           ;inc\CANlib.h: 757: tamp = (filter >> 3);
  2033  000194  C074  F079         	movff	CANSetFilter@filter,??_CANSetFilter
  2034  000198  C075  F07A         	movff	CANSetFilter@filter+1,??_CANSetFilter+1
  2035  00019C  C076  F07B         	movff	CANSetFilter@filter+2,??_CANSetFilter+2
  2036  0001A0  C077  F07C         	movff	CANSetFilter@filter+3,??_CANSetFilter+3
  2037  0001A4  0E04               	movlw	4
  2038  0001A6  D006               	goto	u2180
  2039  0001A8                     u2185:
  2040  0001A8  0100               	movlb	0	; () banked
  2041  0001AA  90D8               	bcf	status,0,c
  2042  0001AC  337C               	rrcf	(??_CANSetFilter+3)& (0+255),f,b
  2043  0001AE  337B               	rrcf	(??_CANSetFilter+2)& (0+255),f,b
  2044  0001B0  337A               	rrcf	(??_CANSetFilter+1)& (0+255),f,b
  2045  0001B2  3379               	rrcf	??_CANSetFilter& (0+255),f,b
  2046  0001B4                     u2180:
  2047  0001B4  2EE8               	decfsz	wreg,f,c
  2048  0001B6  D7F8               	goto	u2185
  2049  0001B8  C079  F07E         	movff	??_CANSetFilter,CANSetFilter@tamp
  2050  0001BC  C07A  F07F         	movff	??_CANSetFilter+1,CANSetFilter@tamp+1
  2051  0001C0  C07B  F080         	movff	??_CANSetFilter+2,CANSetFilter@tamp+2
  2052  0001C4  C07C  F081         	movff	??_CANSetFilter+3,CANSetFilter@tamp+3
  2053                           
  2054                           ; BSR set to: 0
  2055                           ;inc\CANlib.h: 758: tamp = tamp & 0x000000FF;
  2056  0001C8  0100               	movlb	0	; () banked
  2057  0001CA  517E               	movf	CANSetFilter@tamp& (0+255),w,b
  2058  0001CC  0100               	movlb	0	; () banked
  2059  0001CE  6F7E               	movwf	CANSetFilter@tamp& (0+255),b
  2060  0001D0  6B7F               	clrf	(CANSetFilter@tamp+1)& (0+255),b
  2061  0001D2  6B80               	clrf	(CANSetFilter@tamp+2)& (0+255),b
  2062  0001D4  6B81               	clrf	(CANSetFilter@tamp+3)& (0+255),b
  2063                           
  2064                           ; BSR set to: 0
  2065                           ;inc\CANlib.h: 759: RXF0SIDH = (unsigned char) tamp;
  2066  0001D6  C07E  FF00         	movff	CANSetFilter@tamp,3840	;volatile
  2067                           
  2068                           ; BSR set to: 0
  2069                           ;inc\CANlib.h: 761: tamp = filter & 0x00000007;
  2070  0001DA  0E07               	movlw	7
  2071  0001DC  0100               	movlb	0	; () banked
  2072  0001DE  1574               	andwf	CANSetFilter@filter& (0+255),w,b
  2073  0001E0  0100               	movlb	0	; () banked
  2074  0001E2  6F7E               	movwf	CANSetFilter@tamp& (0+255),b
  2075  0001E4  0E00               	movlw	0
  2076  0001E6  0100               	movlb	0	; () banked
  2077  0001E8  1575               	andwf	(CANSetFilter@filter+1)& (0+255),w,b
  2078  0001EA  0100               	movlb	0	; () banked
  2079  0001EC  6F7F               	movwf	(CANSetFilter@tamp+1)& (0+255),b
  2080  0001EE  0E00               	movlw	0
  2081  0001F0  0100               	movlb	0	; () banked
  2082  0001F2  1576               	andwf	(CANSetFilter@filter+2)& (0+255),w,b
  2083  0001F4  0100               	movlb	0	; () banked
  2084  0001F6  6F80               	movwf	(CANSetFilter@tamp+2)& (0+255),b
  2085  0001F8  0E00               	movlw	0
  2086  0001FA  0100               	movlb	0	; () banked
  2087  0001FC  1577               	andwf	(CANSetFilter@filter+3)& (0+255),w,b
  2088  0001FE  0100               	movlb	0	; () banked
  2089  000200  6F81               	movwf	(CANSetFilter@tamp+3)& (0+255),b
  2090                           
  2091                           ; BSR set to: 0
  2092                           ;inc\CANlib.h: 762: tamp = tamp << 5;
  2093  000202  C07E  F079         	movff	CANSetFilter@tamp,??_CANSetFilter
  2094  000206  C07F  F07A         	movff	CANSetFilter@tamp+1,??_CANSetFilter+1
  2095  00020A  C080  F07B         	movff	CANSetFilter@tamp+2,??_CANSetFilter+2
  2096  00020E  C081  F07C         	movff	CANSetFilter@tamp+3,??_CANSetFilter+3
  2097  000212  0E05               	movlw	5
  2098  000214                     u2195:
  2099  000214  90D8               	bcf	status,0,c
  2100  000216  0100               	movlb	0	; () banked
  2101  000218  3779               	rlcf	??_CANSetFilter& (0+255),f,b
  2102  00021A  377A               	rlcf	(??_CANSetFilter+1)& (0+255),f,b
  2103  00021C  377B               	rlcf	(??_CANSetFilter+2)& (0+255),f,b
  2104  00021E  377C               	rlcf	(??_CANSetFilter+3)& (0+255),f,b
  2105  000220  2EE8               	decfsz	wreg,f,c
  2106  000222  D7F8               	goto	u2195
  2107  000224  C079  F07E         	movff	??_CANSetFilter,CANSetFilter@tamp
  2108  000228  C07A  F07F         	movff	??_CANSetFilter+1,CANSetFilter@tamp+1
  2109  00022C  C07B  F080         	movff	??_CANSetFilter+2,CANSetFilter@tamp+2
  2110  000230  C07C  F081         	movff	??_CANSetFilter+3,CANSetFilter@tamp+3
  2111                           
  2112                           ; BSR set to: 0
  2113                           ;inc\CANlib.h: 763: RXF0SIDL = (unsigned char) tamp;
  2114  000234  C07E  FF01         	movff	CANSetFilter@tamp,3841	;volatile
  2115  000238                     l2472:
  2116                           
  2117                           ; BSR set to: 0
  2118                           ;inc\CANlib.h: 764: }
  2119                           ;inc\CANlib.h: 766: if ((numBuffer ==CAN_FILTER_B1_F2) && (type == CAN_CONFIG_STD_MSG))
  2120  000238  0100               	movlb	0	; () banked
  2121  00023A  057D               	decf	CANSetFilter@numBuffer& (0+255),w,b
  2122  00023C  A4D8               	btfss	status,2,c
  2123  00023E  D058               	goto	l2490
  2124                           
  2125                           ; BSR set to: 0
  2126  000240  0100               	movlb	0	; () banked
  2127  000242  2978               	incf	CANSetFilter@type& (0+255),w,b
  2128  000244  A4D8               	btfss	status,2,c
  2129  000246  D054               	goto	l2490
  2130                           
  2131                           ; BSR set to: 0
  2132                           ;inc\CANlib.h: 767: {
  2133                           ;inc\CANlib.h: 768: RXF1SIDLbits.EXIDEN = 0x00;
  2134  000248  010F               	movlb	15	; () banked
  2135  00024A  9705               	bcf	5,3,b	;volatile
  2136                           
  2137                           ; BSR set to: 15
  2138                           ;inc\CANlib.h: 770: tamp = (filter >> 3);
  2139  00024C  C074  F079         	movff	CANSetFilter@filter,??_CANSetFilter
  2140  000250  C075  F07A         	movff	CANSetFilter@filter+1,??_CANSetFilter+1
  2141  000254  C076  F07B         	movff	CANSetFilter@filter+2,??_CANSetFilter+2
  2142  000258  C077  F07C         	movff	CANSetFilter@filter+3,??_CANSetFilter+3
  2143  00025C  0E04               	movlw	4
  2144  00025E  D006               	goto	u2220
  2145  000260                     u2225:
  2146  000260  0100               	movlb	0	; () banked
  2147  000262  90D8               	bcf	status,0,c
  2148  000264  337C               	rrcf	(??_CANSetFilter+3)& (0+255),f,b
  2149  000266  337B               	rrcf	(??_CANSetFilter+2)& (0+255),f,b
  2150  000268  337A               	rrcf	(??_CANSetFilter+1)& (0+255),f,b
  2151  00026A  3379               	rrcf	??_CANSetFilter& (0+255),f,b
  2152  00026C                     u2220:
  2153  00026C  2EE8               	decfsz	wreg,f,c
  2154  00026E  D7F8               	goto	u2225
  2155  000270  C079  F07E         	movff	??_CANSetFilter,CANSetFilter@tamp
  2156  000274  C07A  F07F         	movff	??_CANSetFilter+1,CANSetFilter@tamp+1
  2157  000278  C07B  F080         	movff	??_CANSetFilter+2,CANSetFilter@tamp+2
  2158  00027C  C07C  F081         	movff	??_CANSetFilter+3,CANSetFilter@tamp+3
  2159                           
  2160                           ; BSR set to: 0
  2161                           ;inc\CANlib.h: 771: tamp = tamp & 0x000000FF;
  2162  000280  0100               	movlb	0	; () banked
  2163  000282  517E               	movf	CANSetFilter@tamp& (0+255),w,b
  2164  000284  0100               	movlb	0	; () banked
  2165  000286  6F7E               	movwf	CANSetFilter@tamp& (0+255),b
  2166  000288  6B7F               	clrf	(CANSetFilter@tamp+1)& (0+255),b
  2167  00028A  6B80               	clrf	(CANSetFilter@tamp+2)& (0+255),b
  2168  00028C  6B81               	clrf	(CANSetFilter@tamp+3)& (0+255),b
  2169                           
  2170                           ; BSR set to: 0
  2171                           ;inc\CANlib.h: 772: RXF1SIDH = (unsigned char) tamp;
  2172  00028E  C07E  FF04         	movff	CANSetFilter@tamp,3844	;volatile
  2173                           
  2174                           ; BSR set to: 0
  2175                           ;inc\CANlib.h: 774: tamp = filter & 0x00000007;
  2176  000292  0E07               	movlw	7
  2177  000294  0100               	movlb	0	; () banked
  2178  000296  1574               	andwf	CANSetFilter@filter& (0+255),w,b
  2179  000298  0100               	movlb	0	; () banked
  2180  00029A  6F7E               	movwf	CANSetFilter@tamp& (0+255),b
  2181  00029C  0E00               	movlw	0
  2182  00029E  0100               	movlb	0	; () banked
  2183  0002A0  1575               	andwf	(CANSetFilter@filter+1)& (0+255),w,b
  2184  0002A2  0100               	movlb	0	; () banked
  2185  0002A4  6F7F               	movwf	(CANSetFilter@tamp+1)& (0+255),b
  2186  0002A6  0E00               	movlw	0
  2187  0002A8  0100               	movlb	0	; () banked
  2188  0002AA  1576               	andwf	(CANSetFilter@filter+2)& (0+255),w,b
  2189  0002AC  0100               	movlb	0	; () banked
  2190  0002AE  6F80               	movwf	(CANSetFilter@tamp+2)& (0+255),b
  2191  0002B0  0E00               	movlw	0
  2192  0002B2  0100               	movlb	0	; () banked
  2193  0002B4  1577               	andwf	(CANSetFilter@filter+3)& (0+255),w,b
  2194  0002B6  0100               	movlb	0	; () banked
  2195  0002B8  6F81               	movwf	(CANSetFilter@tamp+3)& (0+255),b
  2196                           
  2197                           ; BSR set to: 0
  2198                           ;inc\CANlib.h: 775: tamp = tamp << 5;
  2199  0002BA  C07E  F079         	movff	CANSetFilter@tamp,??_CANSetFilter
  2200  0002BE  C07F  F07A         	movff	CANSetFilter@tamp+1,??_CANSetFilter+1
  2201  0002C2  C080  F07B         	movff	CANSetFilter@tamp+2,??_CANSetFilter+2
  2202  0002C6  C081  F07C         	movff	CANSetFilter@tamp+3,??_CANSetFilter+3
  2203  0002CA  0E05               	movlw	5
  2204  0002CC                     u2235:
  2205  0002CC  90D8               	bcf	status,0,c
  2206  0002CE  0100               	movlb	0	; () banked
  2207  0002D0  3779               	rlcf	??_CANSetFilter& (0+255),f,b
  2208  0002D2  377A               	rlcf	(??_CANSetFilter+1)& (0+255),f,b
  2209  0002D4  377B               	rlcf	(??_CANSetFilter+2)& (0+255),f,b
  2210  0002D6  377C               	rlcf	(??_CANSetFilter+3)& (0+255),f,b
  2211  0002D8  2EE8               	decfsz	wreg,f,c
  2212  0002DA  D7F8               	goto	u2235
  2213  0002DC  C079  F07E         	movff	??_CANSetFilter,CANSetFilter@tamp
  2214  0002E0  C07A  F07F         	movff	??_CANSetFilter+1,CANSetFilter@tamp+1
  2215  0002E4  C07B  F080         	movff	??_CANSetFilter+2,CANSetFilter@tamp+2
  2216  0002E8  C07C  F081         	movff	??_CANSetFilter+3,CANSetFilter@tamp+3
  2217                           
  2218                           ; BSR set to: 0
  2219                           ;inc\CANlib.h: 776: RXF1SIDL = (unsigned char) tamp;
  2220  0002EC  C07E  FF05         	movff	CANSetFilter@tamp,3845	;volatile
  2221  0002F0                     l2490:
  2222                           
  2223                           ; BSR set to: 0
  2224                           ;inc\CANlib.h: 777: }
  2225                           ;inc\CANlib.h: 779: if ((numBuffer ==CAN_FILTER_B2_F1) && (type == CAN_CONFIG_STD_MSG))
  2226  0002F0  0E02               	movlw	2
  2227  0002F2  0100               	movlb	0	; () banked
  2228  0002F4  197D               	xorwf	CANSetFilter@numBuffer& (0+255),w,b
  2229  0002F6  A4D8               	btfss	status,2,c
  2230  0002F8  D058               	goto	l2508
  2231                           
  2232                           ; BSR set to: 0
  2233  0002FA  0100               	movlb	0	; () banked
  2234  0002FC  2978               	incf	CANSetFilter@type& (0+255),w,b
  2235  0002FE  A4D8               	btfss	status,2,c
  2236  000300  D054               	goto	l2508
  2237                           
  2238                           ; BSR set to: 0
  2239                           ;inc\CANlib.h: 780: {
  2240                           ;inc\CANlib.h: 781: RXF2SIDLbits.EXIDEN = 0x00;
  2241  000302  010F               	movlb	15	; () banked
  2242  000304  9709               	bcf	9,3,b	;volatile
  2243                           
  2244                           ; BSR set to: 15
  2245                           ;inc\CANlib.h: 783: tamp = (filter >> 3);
  2246  000306  C074  F079         	movff	CANSetFilter@filter,??_CANSetFilter
  2247  00030A  C075  F07A         	movff	CANSetFilter@filter+1,??_CANSetFilter+1
  2248  00030E  C076  F07B         	movff	CANSetFilter@filter+2,??_CANSetFilter+2
  2249  000312  C077  F07C         	movff	CANSetFilter@filter+3,??_CANSetFilter+3
  2250  000316  0E04               	movlw	4
  2251  000318  D006               	goto	u2260
  2252  00031A                     u2265:
  2253  00031A  0100               	movlb	0	; () banked
  2254  00031C  90D8               	bcf	status,0,c
  2255  00031E  337C               	rrcf	(??_CANSetFilter+3)& (0+255),f,b
  2256  000320  337B               	rrcf	(??_CANSetFilter+2)& (0+255),f,b
  2257  000322  337A               	rrcf	(??_CANSetFilter+1)& (0+255),f,b
  2258  000324  3379               	rrcf	??_CANSetFilter& (0+255),f,b
  2259  000326                     u2260:
  2260  000326  2EE8               	decfsz	wreg,f,c
  2261  000328  D7F8               	goto	u2265
  2262  00032A  C079  F07E         	movff	??_CANSetFilter,CANSetFilter@tamp
  2263  00032E  C07A  F07F         	movff	??_CANSetFilter+1,CANSetFilter@tamp+1
  2264  000332  C07B  F080         	movff	??_CANSetFilter+2,CANSetFilter@tamp+2
  2265  000336  C07C  F081         	movff	??_CANSetFilter+3,CANSetFilter@tamp+3
  2266                           
  2267                           ; BSR set to: 0
  2268                           ;inc\CANlib.h: 784: tamp = tamp & 0x000000FF;
  2269  00033A  0100               	movlb	0	; () banked
  2270  00033C  517E               	movf	CANSetFilter@tamp& (0+255),w,b
  2271  00033E  0100               	movlb	0	; () banked
  2272  000340  6F7E               	movwf	CANSetFilter@tamp& (0+255),b
  2273  000342  6B7F               	clrf	(CANSetFilter@tamp+1)& (0+255),b
  2274  000344  6B80               	clrf	(CANSetFilter@tamp+2)& (0+255),b
  2275  000346  6B81               	clrf	(CANSetFilter@tamp+3)& (0+255),b
  2276                           
  2277                           ; BSR set to: 0
  2278                           ;inc\CANlib.h: 785: RXF2SIDH = (unsigned char) tamp;
  2279  000348  C07E  FF08         	movff	CANSetFilter@tamp,3848	;volatile
  2280                           
  2281                           ; BSR set to: 0
  2282                           ;inc\CANlib.h: 787: tamp = filter & 0x00000007;
  2283  00034C  0E07               	movlw	7
  2284  00034E  0100               	movlb	0	; () banked
  2285  000350  1574               	andwf	CANSetFilter@filter& (0+255),w,b
  2286  000352  0100               	movlb	0	; () banked
  2287  000354  6F7E               	movwf	CANSetFilter@tamp& (0+255),b
  2288  000356  0E00               	movlw	0
  2289  000358  0100               	movlb	0	; () banked
  2290  00035A  1575               	andwf	(CANSetFilter@filter+1)& (0+255),w,b
  2291  00035C  0100               	movlb	0	; () banked
  2292  00035E  6F7F               	movwf	(CANSetFilter@tamp+1)& (0+255),b
  2293  000360  0E00               	movlw	0
  2294  000362  0100               	movlb	0	; () banked
  2295  000364  1576               	andwf	(CANSetFilter@filter+2)& (0+255),w,b
  2296  000366  0100               	movlb	0	; () banked
  2297  000368  6F80               	movwf	(CANSetFilter@tamp+2)& (0+255),b
  2298  00036A  0E00               	movlw	0
  2299  00036C  0100               	movlb	0	; () banked
  2300  00036E  1577               	andwf	(CANSetFilter@filter+3)& (0+255),w,b
  2301  000370  0100               	movlb	0	; () banked
  2302  000372  6F81               	movwf	(CANSetFilter@tamp+3)& (0+255),b
  2303                           
  2304                           ; BSR set to: 0
  2305                           ;inc\CANlib.h: 788: tamp = tamp << 5;
  2306  000374  C07E  F079         	movff	CANSetFilter@tamp,??_CANSetFilter
  2307  000378  C07F  F07A         	movff	CANSetFilter@tamp+1,??_CANSetFilter+1
  2308  00037C  C080  F07B         	movff	CANSetFilter@tamp+2,??_CANSetFilter+2
  2309  000380  C081  F07C         	movff	CANSetFilter@tamp+3,??_CANSetFilter+3
  2310  000384  0E05               	movlw	5
  2311  000386                     u2275:
  2312  000386  90D8               	bcf	status,0,c
  2313  000388  0100               	movlb	0	; () banked
  2314  00038A  3779               	rlcf	??_CANSetFilter& (0+255),f,b
  2315  00038C  377A               	rlcf	(??_CANSetFilter+1)& (0+255),f,b
  2316  00038E  377B               	rlcf	(??_CANSetFilter+2)& (0+255),f,b
  2317  000390  377C               	rlcf	(??_CANSetFilter+3)& (0+255),f,b
  2318  000392  2EE8               	decfsz	wreg,f,c
  2319  000394  D7F8               	goto	u2275
  2320  000396  C079  F07E         	movff	??_CANSetFilter,CANSetFilter@tamp
  2321  00039A  C07A  F07F         	movff	??_CANSetFilter+1,CANSetFilter@tamp+1
  2322  00039E  C07B  F080         	movff	??_CANSetFilter+2,CANSetFilter@tamp+2
  2323  0003A2  C07C  F081         	movff	??_CANSetFilter+3,CANSetFilter@tamp+3
  2324                           
  2325                           ; BSR set to: 0
  2326                           ;inc\CANlib.h: 789: RXF2SIDL = (unsigned char) tamp;
  2327  0003A6  C07E  FF09         	movff	CANSetFilter@tamp,3849	;volatile
  2328  0003AA                     l2508:
  2329                           
  2330                           ; BSR set to: 0
  2331                           ;inc\CANlib.h: 790: }
  2332                           ;inc\CANlib.h: 792: if ((numBuffer ==CAN_FILTER_B2_F2) && (type == CAN_CONFIG_STD_MSG))
  2333  0003AA  0E03               	movlw	3
  2334  0003AC  0100               	movlb	0	; () banked
  2335  0003AE  197D               	xorwf	CANSetFilter@numBuffer& (0+255),w,b
  2336  0003B0  A4D8               	btfss	status,2,c
  2337  0003B2  D058               	goto	l2526
  2338                           
  2339                           ; BSR set to: 0
  2340  0003B4  0100               	movlb	0	; () banked
  2341  0003B6  2978               	incf	CANSetFilter@type& (0+255),w,b
  2342  0003B8  A4D8               	btfss	status,2,c
  2343  0003BA  D054               	goto	l2526
  2344                           
  2345                           ; BSR set to: 0
  2346                           ;inc\CANlib.h: 793: {
  2347                           ;inc\CANlib.h: 794: RXF3SIDLbits.EXIDEN = 0x00;
  2348  0003BC  010F               	movlb	15	; () banked
  2349  0003BE  970D               	bcf	13,3,b	;volatile
  2350                           
  2351                           ; BSR set to: 15
  2352                           ;inc\CANlib.h: 796: tamp = (filter >> 3);
  2353  0003C0  C074  F079         	movff	CANSetFilter@filter,??_CANSetFilter
  2354  0003C4  C075  F07A         	movff	CANSetFilter@filter+1,??_CANSetFilter+1
  2355  0003C8  C076  F07B         	movff	CANSetFilter@filter+2,??_CANSetFilter+2
  2356  0003CC  C077  F07C         	movff	CANSetFilter@filter+3,??_CANSetFilter+3
  2357  0003D0  0E04               	movlw	4
  2358  0003D2  D006               	goto	u2300
  2359  0003D4                     u2305:
  2360  0003D4  0100               	movlb	0	; () banked
  2361  0003D6  90D8               	bcf	status,0,c
  2362  0003D8  337C               	rrcf	(??_CANSetFilter+3)& (0+255),f,b
  2363  0003DA  337B               	rrcf	(??_CANSetFilter+2)& (0+255),f,b
  2364  0003DC  337A               	rrcf	(??_CANSetFilter+1)& (0+255),f,b
  2365  0003DE  3379               	rrcf	??_CANSetFilter& (0+255),f,b
  2366  0003E0                     u2300:
  2367  0003E0  2EE8               	decfsz	wreg,f,c
  2368  0003E2  D7F8               	goto	u2305
  2369  0003E4  C079  F07E         	movff	??_CANSetFilter,CANSetFilter@tamp
  2370  0003E8  C07A  F07F         	movff	??_CANSetFilter+1,CANSetFilter@tamp+1
  2371  0003EC  C07B  F080         	movff	??_CANSetFilter+2,CANSetFilter@tamp+2
  2372  0003F0  C07C  F081         	movff	??_CANSetFilter+3,CANSetFilter@tamp+3
  2373                           
  2374                           ; BSR set to: 0
  2375                           ;inc\CANlib.h: 797: tamp = tamp & 0x000000FF;
  2376  0003F4  0100               	movlb	0	; () banked
  2377  0003F6  517E               	movf	CANSetFilter@tamp& (0+255),w,b
  2378  0003F8  0100               	movlb	0	; () banked
  2379  0003FA  6F7E               	movwf	CANSetFilter@tamp& (0+255),b
  2380  0003FC  6B7F               	clrf	(CANSetFilter@tamp+1)& (0+255),b
  2381  0003FE  6B80               	clrf	(CANSetFilter@tamp+2)& (0+255),b
  2382  000400  6B81               	clrf	(CANSetFilter@tamp+3)& (0+255),b
  2383                           
  2384                           ; BSR set to: 0
  2385                           ;inc\CANlib.h: 798: RXF3SIDH = (unsigned char) tamp;
  2386  000402  C07E  FF0C         	movff	CANSetFilter@tamp,3852	;volatile
  2387                           
  2388                           ; BSR set to: 0
  2389                           ;inc\CANlib.h: 800: tamp = filter & 0x00000007;
  2390  000406  0E07               	movlw	7
  2391  000408  0100               	movlb	0	; () banked
  2392  00040A  1574               	andwf	CANSetFilter@filter& (0+255),w,b
  2393  00040C  0100               	movlb	0	; () banked
  2394  00040E  6F7E               	movwf	CANSetFilter@tamp& (0+255),b
  2395  000410  0E00               	movlw	0
  2396  000412  0100               	movlb	0	; () banked
  2397  000414  1575               	andwf	(CANSetFilter@filter+1)& (0+255),w,b
  2398  000416  0100               	movlb	0	; () banked
  2399  000418  6F7F               	movwf	(CANSetFilter@tamp+1)& (0+255),b
  2400  00041A  0E00               	movlw	0
  2401  00041C  0100               	movlb	0	; () banked
  2402  00041E  1576               	andwf	(CANSetFilter@filter+2)& (0+255),w,b
  2403  000420  0100               	movlb	0	; () banked
  2404  000422  6F80               	movwf	(CANSetFilter@tamp+2)& (0+255),b
  2405  000424  0E00               	movlw	0
  2406  000426  0100               	movlb	0	; () banked
  2407  000428  1577               	andwf	(CANSetFilter@filter+3)& (0+255),w,b
  2408  00042A  0100               	movlb	0	; () banked
  2409  00042C  6F81               	movwf	(CANSetFilter@tamp+3)& (0+255),b
  2410                           
  2411                           ; BSR set to: 0
  2412                           ;inc\CANlib.h: 801: tamp = tamp << 5;
  2413  00042E  C07E  F079         	movff	CANSetFilter@tamp,??_CANSetFilter
  2414  000432  C07F  F07A         	movff	CANSetFilter@tamp+1,??_CANSetFilter+1
  2415  000436  C080  F07B         	movff	CANSetFilter@tamp+2,??_CANSetFilter+2
  2416  00043A  C081  F07C         	movff	CANSetFilter@tamp+3,??_CANSetFilter+3
  2417  00043E  0E05               	movlw	5
  2418  000440                     u2315:
  2419  000440  90D8               	bcf	status,0,c
  2420  000442  0100               	movlb	0	; () banked
  2421  000444  3779               	rlcf	??_CANSetFilter& (0+255),f,b
  2422  000446  377A               	rlcf	(??_CANSetFilter+1)& (0+255),f,b
  2423  000448  377B               	rlcf	(??_CANSetFilter+2)& (0+255),f,b
  2424  00044A  377C               	rlcf	(??_CANSetFilter+3)& (0+255),f,b
  2425  00044C  2EE8               	decfsz	wreg,f,c
  2426  00044E  D7F8               	goto	u2315
  2427  000450  C079  F07E         	movff	??_CANSetFilter,CANSetFilter@tamp
  2428  000454  C07A  F07F         	movff	??_CANSetFilter+1,CANSetFilter@tamp+1
  2429  000458  C07B  F080         	movff	??_CANSetFilter+2,CANSetFilter@tamp+2
  2430  00045C  C07C  F081         	movff	??_CANSetFilter+3,CANSetFilter@tamp+3
  2431                           
  2432                           ; BSR set to: 0
  2433                           ;inc\CANlib.h: 802: RXF3SIDL = (unsigned char) tamp;
  2434  000460  C07E  FF0D         	movff	CANSetFilter@tamp,3853	;volatile
  2435  000464                     l2526:
  2436                           
  2437                           ; BSR set to: 0
  2438                           ;inc\CANlib.h: 803: }
  2439                           ;inc\CANlib.h: 805: if ((numBuffer ==CAN_FILTER_B2_F3) && (type == CAN_CONFIG_STD_MSG))
  2440  000464  0E04               	movlw	4
  2441  000466  0100               	movlb	0	; () banked
  2442  000468  197D               	xorwf	CANSetFilter@numBuffer& (0+255),w,b
  2443  00046A  A4D8               	btfss	status,2,c
  2444  00046C  D058               	goto	l2544
  2445                           
  2446                           ; BSR set to: 0
  2447  00046E  0100               	movlb	0	; () banked
  2448  000470  2978               	incf	CANSetFilter@type& (0+255),w,b
  2449  000472  A4D8               	btfss	status,2,c
  2450  000474  D054               	goto	l2544
  2451                           
  2452                           ; BSR set to: 0
  2453                           ;inc\CANlib.h: 806: {
  2454                           ;inc\CANlib.h: 807: RXF4SIDLbits.EXIDEN = 0x00;
  2455  000476  010F               	movlb	15	; () banked
  2456  000478  9711               	bcf	17,3,b	;volatile
  2457                           
  2458                           ; BSR set to: 15
  2459                           ;inc\CANlib.h: 809: tamp = (filter >> 3);
  2460  00047A  C074  F079         	movff	CANSetFilter@filter,??_CANSetFilter
  2461  00047E  C075  F07A         	movff	CANSetFilter@filter+1,??_CANSetFilter+1
  2462  000482  C076  F07B         	movff	CANSetFilter@filter+2,??_CANSetFilter+2
  2463  000486  C077  F07C         	movff	CANSetFilter@filter+3,??_CANSetFilter+3
  2464  00048A  0E04               	movlw	4
  2465  00048C  D006               	goto	u2340
  2466  00048E                     u2345:
  2467  00048E  0100               	movlb	0	; () banked
  2468  000490  90D8               	bcf	status,0,c
  2469  000492  337C               	rrcf	(??_CANSetFilter+3)& (0+255),f,b
  2470  000494  337B               	rrcf	(??_CANSetFilter+2)& (0+255),f,b
  2471  000496  337A               	rrcf	(??_CANSetFilter+1)& (0+255),f,b
  2472  000498  3379               	rrcf	??_CANSetFilter& (0+255),f,b
  2473  00049A                     u2340:
  2474  00049A  2EE8               	decfsz	wreg,f,c
  2475  00049C  D7F8               	goto	u2345
  2476  00049E  C079  F07E         	movff	??_CANSetFilter,CANSetFilter@tamp
  2477  0004A2  C07A  F07F         	movff	??_CANSetFilter+1,CANSetFilter@tamp+1
  2478  0004A6  C07B  F080         	movff	??_CANSetFilter+2,CANSetFilter@tamp+2
  2479  0004AA  C07C  F081         	movff	??_CANSetFilter+3,CANSetFilter@tamp+3
  2480                           
  2481                           ; BSR set to: 0
  2482                           ;inc\CANlib.h: 810: tamp = tamp & 0x000000FF;
  2483  0004AE  0100               	movlb	0	; () banked
  2484  0004B0  517E               	movf	CANSetFilter@tamp& (0+255),w,b
  2485  0004B2  0100               	movlb	0	; () banked
  2486  0004B4  6F7E               	movwf	CANSetFilter@tamp& (0+255),b
  2487  0004B6  6B7F               	clrf	(CANSetFilter@tamp+1)& (0+255),b
  2488  0004B8  6B80               	clrf	(CANSetFilter@tamp+2)& (0+255),b
  2489  0004BA  6B81               	clrf	(CANSetFilter@tamp+3)& (0+255),b
  2490                           
  2491                           ; BSR set to: 0
  2492                           ;inc\CANlib.h: 811: RXF4SIDH = (unsigned char) tamp;
  2493  0004BC  C07E  FF10         	movff	CANSetFilter@tamp,3856	;volatile
  2494                           
  2495                           ; BSR set to: 0
  2496                           ;inc\CANlib.h: 813: tamp = filter & 0x00000007;
  2497  0004C0  0E07               	movlw	7
  2498  0004C2  0100               	movlb	0	; () banked
  2499  0004C4  1574               	andwf	CANSetFilter@filter& (0+255),w,b
  2500  0004C6  0100               	movlb	0	; () banked
  2501  0004C8  6F7E               	movwf	CANSetFilter@tamp& (0+255),b
  2502  0004CA  0E00               	movlw	0
  2503  0004CC  0100               	movlb	0	; () banked
  2504  0004CE  1575               	andwf	(CANSetFilter@filter+1)& (0+255),w,b
  2505  0004D0  0100               	movlb	0	; () banked
  2506  0004D2  6F7F               	movwf	(CANSetFilter@tamp+1)& (0+255),b
  2507  0004D4  0E00               	movlw	0
  2508  0004D6  0100               	movlb	0	; () banked
  2509  0004D8  1576               	andwf	(CANSetFilter@filter+2)& (0+255),w,b
  2510  0004DA  0100               	movlb	0	; () banked
  2511  0004DC  6F80               	movwf	(CANSetFilter@tamp+2)& (0+255),b
  2512  0004DE  0E00               	movlw	0
  2513  0004E0  0100               	movlb	0	; () banked
  2514  0004E2  1577               	andwf	(CANSetFilter@filter+3)& (0+255),w,b
  2515  0004E4  0100               	movlb	0	; () banked
  2516  0004E6  6F81               	movwf	(CANSetFilter@tamp+3)& (0+255),b
  2517                           
  2518                           ; BSR set to: 0
  2519                           ;inc\CANlib.h: 814: tamp = tamp << 5;
  2520  0004E8  C07E  F079         	movff	CANSetFilter@tamp,??_CANSetFilter
  2521  0004EC  C07F  F07A         	movff	CANSetFilter@tamp+1,??_CANSetFilter+1
  2522  0004F0  C080  F07B         	movff	CANSetFilter@tamp+2,??_CANSetFilter+2
  2523  0004F4  C081  F07C         	movff	CANSetFilter@tamp+3,??_CANSetFilter+3
  2524  0004F8  0E05               	movlw	5
  2525  0004FA                     u2355:
  2526  0004FA  90D8               	bcf	status,0,c
  2527  0004FC  0100               	movlb	0	; () banked
  2528  0004FE  3779               	rlcf	??_CANSetFilter& (0+255),f,b
  2529  000500  377A               	rlcf	(??_CANSetFilter+1)& (0+255),f,b
  2530  000502  377B               	rlcf	(??_CANSetFilter+2)& (0+255),f,b
  2531  000504  377C               	rlcf	(??_CANSetFilter+3)& (0+255),f,b
  2532  000506  2EE8               	decfsz	wreg,f,c
  2533  000508  D7F8               	goto	u2355
  2534  00050A  C079  F07E         	movff	??_CANSetFilter,CANSetFilter@tamp
  2535  00050E  C07A  F07F         	movff	??_CANSetFilter+1,CANSetFilter@tamp+1
  2536  000512  C07B  F080         	movff	??_CANSetFilter+2,CANSetFilter@tamp+2
  2537  000516  C07C  F081         	movff	??_CANSetFilter+3,CANSetFilter@tamp+3
  2538                           
  2539                           ; BSR set to: 0
  2540                           ;inc\CANlib.h: 815: RXF4SIDL = (unsigned char) tamp;
  2541  00051A  C07E  FF11         	movff	CANSetFilter@tamp,3857	;volatile
  2542  00051E                     l2544:
  2543                           
  2544                           ; BSR set to: 0
  2545                           ;inc\CANlib.h: 816: }
  2546                           ;inc\CANlib.h: 818: if ((numBuffer ==CAN_FILTER_B2_F4) && (type == CAN_CONFIG_STD_MSG))
  2547  00051E  0E05               	movlw	5
  2548  000520  0100               	movlb	0	; () banked
  2549  000522  197D               	xorwf	CANSetFilter@numBuffer& (0+255),w,b
  2550  000524  A4D8               	btfss	status,2,c
  2551  000526  D058               	goto	l2562
  2552                           
  2553                           ; BSR set to: 0
  2554  000528  0100               	movlb	0	; () banked
  2555  00052A  2978               	incf	CANSetFilter@type& (0+255),w,b
  2556  00052C  A4D8               	btfss	status,2,c
  2557  00052E  D054               	goto	l2562
  2558                           
  2559                           ; BSR set to: 0
  2560                           ;inc\CANlib.h: 819: {
  2561                           ;inc\CANlib.h: 820: RXF5SIDLbits.EXIDEN = 0x00;
  2562  000530  010F               	movlb	15	; () banked
  2563  000532  9715               	bcf	21,3,b	;volatile
  2564                           
  2565                           ; BSR set to: 15
  2566                           ;inc\CANlib.h: 822: tamp = (filter >> 3);
  2567  000534  C074  F079         	movff	CANSetFilter@filter,??_CANSetFilter
  2568  000538  C075  F07A         	movff	CANSetFilter@filter+1,??_CANSetFilter+1
  2569  00053C  C076  F07B         	movff	CANSetFilter@filter+2,??_CANSetFilter+2
  2570  000540  C077  F07C         	movff	CANSetFilter@filter+3,??_CANSetFilter+3
  2571  000544  0E04               	movlw	4
  2572  000546  D006               	goto	u2380
  2573  000548                     u2385:
  2574  000548  0100               	movlb	0	; () banked
  2575  00054A  90D8               	bcf	status,0,c
  2576  00054C  337C               	rrcf	(??_CANSetFilter+3)& (0+255),f,b
  2577  00054E  337B               	rrcf	(??_CANSetFilter+2)& (0+255),f,b
  2578  000550  337A               	rrcf	(??_CANSetFilter+1)& (0+255),f,b
  2579  000552  3379               	rrcf	??_CANSetFilter& (0+255),f,b
  2580  000554                     u2380:
  2581  000554  2EE8               	decfsz	wreg,f,c
  2582  000556  D7F8               	goto	u2385
  2583  000558  C079  F07E         	movff	??_CANSetFilter,CANSetFilter@tamp
  2584  00055C  C07A  F07F         	movff	??_CANSetFilter+1,CANSetFilter@tamp+1
  2585  000560  C07B  F080         	movff	??_CANSetFilter+2,CANSetFilter@tamp+2
  2586  000564  C07C  F081         	movff	??_CANSetFilter+3,CANSetFilter@tamp+3
  2587                           
  2588                           ; BSR set to: 0
  2589                           ;inc\CANlib.h: 823: tamp = tamp & 0x000000FF;
  2590  000568  0100               	movlb	0	; () banked
  2591  00056A  517E               	movf	CANSetFilter@tamp& (0+255),w,b
  2592  00056C  0100               	movlb	0	; () banked
  2593  00056E  6F7E               	movwf	CANSetFilter@tamp& (0+255),b
  2594  000570  6B7F               	clrf	(CANSetFilter@tamp+1)& (0+255),b
  2595  000572  6B80               	clrf	(CANSetFilter@tamp+2)& (0+255),b
  2596  000574  6B81               	clrf	(CANSetFilter@tamp+3)& (0+255),b
  2597                           
  2598                           ; BSR set to: 0
  2599                           ;inc\CANlib.h: 824: RXF5SIDH = (unsigned char) tamp;
  2600  000576  C07E  FF14         	movff	CANSetFilter@tamp,3860	;volatile
  2601                           
  2602                           ; BSR set to: 0
  2603                           ;inc\CANlib.h: 826: tamp = filter & 0x00000007;
  2604  00057A  0E07               	movlw	7
  2605  00057C  0100               	movlb	0	; () banked
  2606  00057E  1574               	andwf	CANSetFilter@filter& (0+255),w,b
  2607  000580  0100               	movlb	0	; () banked
  2608  000582  6F7E               	movwf	CANSetFilter@tamp& (0+255),b
  2609  000584  0E00               	movlw	0
  2610  000586  0100               	movlb	0	; () banked
  2611  000588  1575               	andwf	(CANSetFilter@filter+1)& (0+255),w,b
  2612  00058A  0100               	movlb	0	; () banked
  2613  00058C  6F7F               	movwf	(CANSetFilter@tamp+1)& (0+255),b
  2614  00058E  0E00               	movlw	0
  2615  000590  0100               	movlb	0	; () banked
  2616  000592  1576               	andwf	(CANSetFilter@filter+2)& (0+255),w,b
  2617  000594  0100               	movlb	0	; () banked
  2618  000596  6F80               	movwf	(CANSetFilter@tamp+2)& (0+255),b
  2619  000598  0E00               	movlw	0
  2620  00059A  0100               	movlb	0	; () banked
  2621  00059C  1577               	andwf	(CANSetFilter@filter+3)& (0+255),w,b
  2622  00059E  0100               	movlb	0	; () banked
  2623  0005A0  6F81               	movwf	(CANSetFilter@tamp+3)& (0+255),b
  2624                           
  2625                           ; BSR set to: 0
  2626                           ;inc\CANlib.h: 827: tamp = tamp << 5;
  2627  0005A2  C07E  F079         	movff	CANSetFilter@tamp,??_CANSetFilter
  2628  0005A6  C07F  F07A         	movff	CANSetFilter@tamp+1,??_CANSetFilter+1
  2629  0005AA  C080  F07B         	movff	CANSetFilter@tamp+2,??_CANSetFilter+2
  2630  0005AE  C081  F07C         	movff	CANSetFilter@tamp+3,??_CANSetFilter+3
  2631  0005B2  0E05               	movlw	5
  2632  0005B4                     u2395:
  2633  0005B4  90D8               	bcf	status,0,c
  2634  0005B6  0100               	movlb	0	; () banked
  2635  0005B8  3779               	rlcf	??_CANSetFilter& (0+255),f,b
  2636  0005BA  377A               	rlcf	(??_CANSetFilter+1)& (0+255),f,b
  2637  0005BC  377B               	rlcf	(??_CANSetFilter+2)& (0+255),f,b
  2638  0005BE  377C               	rlcf	(??_CANSetFilter+3)& (0+255),f,b
  2639  0005C0  2EE8               	decfsz	wreg,f,c
  2640  0005C2  D7F8               	goto	u2395
  2641  0005C4  C079  F07E         	movff	??_CANSetFilter,CANSetFilter@tamp
  2642  0005C8  C07A  F07F         	movff	??_CANSetFilter+1,CANSetFilter@tamp+1
  2643  0005CC  C07B  F080         	movff	??_CANSetFilter+2,CANSetFilter@tamp+2
  2644  0005D0  C07C  F081         	movff	??_CANSetFilter+3,CANSetFilter@tamp+3
  2645                           
  2646                           ; BSR set to: 0
  2647                           ;inc\CANlib.h: 828: RXF5SIDL = (unsigned char) tamp;
  2648  0005D4  C07E  FF15         	movff	CANSetFilter@tamp,3861	;volatile
  2649  0005D8                     l2562:
  2650                           
  2651                           ; BSR set to: 0
  2652                           ;inc\CANlib.h: 829: }
  2653                           ;inc\CANlib.h: 832: if ((numBuffer ==CAN_FILTER_B1_F1) && (type == CAN_CONFIG_XTD_MSG))
  2654  0005D8  0100               	movlb	0	; () banked
  2655  0005DA  517D               	movf	CANSetFilter@numBuffer& (0+255),w,b
  2656  0005DC  0100               	movlb	0	; () banked
  2657  0005DE  A4D8               	btfss	status,2,c
  2658  0005E0  D089               	goto	l2596
  2659                           
  2660                           ; BSR set to: 0
  2661  0005E2  0EF7               	movlw	247
  2662  0005E4  0100               	movlb	0	; () banked
  2663  0005E6  1978               	xorwf	CANSetFilter@type& (0+255),w,b
  2664  0005E8  A4D8               	btfss	status,2,c
  2665  0005EA  D084               	goto	l2596
  2666                           
  2667                           ; BSR set to: 0
  2668                           ;inc\CANlib.h: 833: {
  2669                           ;inc\CANlib.h: 834: RXF0SIDLbits.EXIDEN = 0x01;
  2670  0005EC  010F               	movlb	15	; () banked
  2671  0005EE  8701               	bsf	1,3,b	;volatile
  2672                           
  2673                           ; BSR set to: 15
  2674                           ;inc\CANlib.h: 836: tamp = filter & 0x000000FF;
  2675  0005F0  0100               	movlb	0	; () banked
  2676  0005F2  5174               	movf	CANSetFilter@filter& (0+255),w,b
  2677  0005F4  0100               	movlb	0	; () banked
  2678  0005F6  6F7E               	movwf	CANSetFilter@tamp& (0+255),b
  2679  0005F8  6B7F               	clrf	(CANSetFilter@tamp+1)& (0+255),b
  2680  0005FA  6B80               	clrf	(CANSetFilter@tamp+2)& (0+255),b
  2681  0005FC  6B81               	clrf	(CANSetFilter@tamp+3)& (0+255),b
  2682                           
  2683                           ; BSR set to: 0
  2684                           ;inc\CANlib.h: 837: RXF0EIDL = (unsigned char) tamp;
  2685  0005FE  C07E  FF03         	movff	CANSetFilter@tamp,3843	;volatile
  2686                           
  2687                           ; BSR set to: 0
  2688                           ;inc\CANlib.h: 839: tamp = filter & 0x0000FF00;
  2689  000602  0E00               	movlw	0
  2690  000604  0100               	movlb	0	; () banked
  2691  000606  1574               	andwf	CANSetFilter@filter& (0+255),w,b
  2692  000608  0100               	movlb	0	; () banked
  2693  00060A  6F7E               	movwf	CANSetFilter@tamp& (0+255),b
  2694  00060C  0EFF               	movlw	255
  2695  00060E  0100               	movlb	0	; () banked
  2696  000610  1575               	andwf	(CANSetFilter@filter+1)& (0+255),w,b
  2697  000612  0100               	movlb	0	; () banked
  2698  000614  6F7F               	movwf	(CANSetFilter@tamp+1)& (0+255),b
  2699  000616  0E00               	movlw	0
  2700  000618  0100               	movlb	0	; () banked
  2701  00061A  1576               	andwf	(CANSetFilter@filter+2)& (0+255),w,b
  2702  00061C  0100               	movlb	0	; () banked
  2703  00061E  6F80               	movwf	(CANSetFilter@tamp+2)& (0+255),b
  2704  000620  0E00               	movlw	0
  2705  000622  0100               	movlb	0	; () banked
  2706  000624  1577               	andwf	(CANSetFilter@filter+3)& (0+255),w,b
  2707  000626  0100               	movlb	0	; () banked
  2708  000628  6F81               	movwf	(CANSetFilter@tamp+3)& (0+255),b
  2709                           
  2710                           ; BSR set to: 0
  2711                           ;inc\CANlib.h: 840: tamp = tamp >> 8;
  2712  00062A  C07E  F079         	movff	CANSetFilter@tamp,??_CANSetFilter
  2713  00062E  C07F  F07A         	movff	CANSetFilter@tamp+1,??_CANSetFilter+1
  2714  000632  C080  F07B         	movff	CANSetFilter@tamp+2,??_CANSetFilter+2
  2715  000636  C081  F07C         	movff	CANSetFilter@tamp+3,??_CANSetFilter+3
  2716  00063A  C07A  F079         	movff	??_CANSetFilter+1,??_CANSetFilter
  2717  00063E  C07B  F07A         	movff	??_CANSetFilter+2,??_CANSetFilter+1
  2718  000642  C07C  F07B         	movff	??_CANSetFilter+3,??_CANSetFilter+2
  2719  000646  0100               	movlb	0	; () banked
  2720  000648  6B7C               	clrf	(??_CANSetFilter+3)& (0+255),b
  2721  00064A  C079  F07E         	movff	??_CANSetFilter,CANSetFilter@tamp
  2722  00064E  C07A  F07F         	movff	??_CANSetFilter+1,CANSetFilter@tamp+1
  2723  000652  C07B  F080         	movff	??_CANSetFilter+2,CANSetFilter@tamp+2
  2724  000656  C07C  F081         	movff	??_CANSetFilter+3,CANSetFilter@tamp+3
  2725                           
  2726                           ; BSR set to: 0
  2727                           ;inc\CANlib.h: 841: RXF0EIDH = (unsigned char) tamp;
  2728  00065A  C07E  FF02         	movff	CANSetFilter@tamp,3842	;volatile
  2729                           
  2730                           ; BSR set to: 0
  2731                           ;inc\CANlib.h: 843: if (filter & 0x00010000)
  2732  00065E  0100               	movlb	0	; () banked
  2733  000660  A176               	btfss	(CANSetFilter@filter+2)& (0+255),0,b
  2734  000662  D003               	goto	l439
  2735                           
  2736                           ; BSR set to: 0
  2737                           ;inc\CANlib.h: 844: RXF0SIDLbits.EID16 = 0x01;
  2738  000664  010F               	movlb	15	; () banked
  2739  000666  8101               	bsf	1,0,b	;volatile
  2740  000668  D002               	goto	l440
  2741  00066A                     l439:
  2742                           
  2743                           ; BSR set to: 0
  2744                           ;inc\CANlib.h: 845: else
  2745                           ;inc\CANlib.h: 846: RXF0SIDLbits.EID16 = 0x00;
  2746  00066A  010F               	movlb	15	; () banked
  2747  00066C  9101               	bcf	1,0,b	;volatile
  2748  00066E                     l440:
  2749                           
  2750                           ; BSR set to: 15
  2751                           ;inc\CANlib.h: 848: if (filter & 0x00020000)
  2752  00066E  0100               	movlb	0	; () banked
  2753  000670  A376               	btfss	(CANSetFilter@filter+2)& (0+255),1,b
  2754  000672  D003               	goto	l441
  2755                           
  2756                           ; BSR set to: 0
  2757                           ;inc\CANlib.h: 849: RXF0SIDLbits.EID17 = 0x01;
  2758  000674  010F               	movlb	15	; () banked
  2759  000676  8301               	bsf	1,1,b	;volatile
  2760  000678  D002               	goto	l442
  2761  00067A                     l441:
  2762                           
  2763                           ; BSR set to: 0
  2764                           ;inc\CANlib.h: 850: else
  2765                           ;inc\CANlib.h: 851: RXF0SIDLbits.EID17 = 0x00;
  2766  00067A  010F               	movlb	15	; () banked
  2767  00067C  9301               	bcf	1,1,b	;volatile
  2768  00067E                     l442:
  2769                           
  2770                           ; BSR set to: 15
  2771                           ;inc\CANlib.h: 853: if (filter & 0x00040000)
  2772  00067E  0100               	movlb	0	; () banked
  2773  000680  A576               	btfss	(CANSetFilter@filter+2)& (0+255),2,b
  2774  000682  D003               	goto	l443
  2775                           
  2776                           ; BSR set to: 0
  2777                           ;inc\CANlib.h: 854: RXF0SIDLbits.SID0 = 0x01;
  2778  000684  010F               	movlb	15	; () banked
  2779  000686  8B01               	bsf	1,5,b	;volatile
  2780  000688  D002               	goto	l444
  2781  00068A                     l443:
  2782                           
  2783                           ; BSR set to: 0
  2784                           ;inc\CANlib.h: 855: else
  2785                           ;inc\CANlib.h: 856: RXF0SIDLbits.SID0 = 0x00;
  2786  00068A  010F               	movlb	15	; () banked
  2787  00068C  9B01               	bcf	1,5,b	;volatile
  2788  00068E                     l444:
  2789                           
  2790                           ; BSR set to: 15
  2791                           ;inc\CANlib.h: 858: if (filter & 0x00080000)
  2792  00068E  0100               	movlb	0	; () banked
  2793  000690  A776               	btfss	(CANSetFilter@filter+2)& (0+255),3,b
  2794  000692  D003               	goto	l445
  2795                           
  2796                           ; BSR set to: 0
  2797                           ;inc\CANlib.h: 859: RXF0SIDLbits.SID1 = 0x01;
  2798  000694  010F               	movlb	15	; () banked
  2799  000696  8D01               	bsf	1,6,b	;volatile
  2800  000698  D002               	goto	l446
  2801  00069A                     l445:
  2802                           
  2803                           ; BSR set to: 0
  2804                           ;inc\CANlib.h: 860: else
  2805                           ;inc\CANlib.h: 861: RXF0SIDLbits.SID1 = 0x00;
  2806  00069A  010F               	movlb	15	; () banked
  2807  00069C  9D01               	bcf	1,6,b	;volatile
  2808  00069E                     l446:
  2809                           
  2810                           ; BSR set to: 15
  2811                           ;inc\CANlib.h: 863: if (filter & 0x00100000)
  2812  00069E  0100               	movlb	0	; () banked
  2813  0006A0  A976               	btfss	(CANSetFilter@filter+2)& (0+255),4,b
  2814  0006A2  D003               	goto	l447
  2815                           
  2816                           ; BSR set to: 0
  2817                           ;inc\CANlib.h: 864: RXF0SIDLbits.SID2 = 0x01 ;
  2818  0006A4  010F               	movlb	15	; () banked
  2819  0006A6  8F01               	bsf	1,7,b	;volatile
  2820  0006A8  D002               	goto	l2590
  2821  0006AA                     l447:
  2822                           
  2823                           ; BSR set to: 0
  2824                           ;inc\CANlib.h: 865: else
  2825                           ;inc\CANlib.h: 866: RXF0SIDLbits.SID2 = 0x00 ;
  2826  0006AA  010F               	movlb	15	; () banked
  2827  0006AC  9F01               	bcf	1,7,b	;volatile
  2828  0006AE                     l2590:
  2829                           
  2830                           ; BSR set to: 15
  2831                           ;inc\CANlib.h: 868: tamp = (filter >> 21);
  2832  0006AE  C074  F079         	movff	CANSetFilter@filter,??_CANSetFilter
  2833  0006B2  C075  F07A         	movff	CANSetFilter@filter+1,??_CANSetFilter+1
  2834  0006B6  C076  F07B         	movff	CANSetFilter@filter+2,??_CANSetFilter+2
  2835  0006BA  C077  F07C         	movff	CANSetFilter@filter+3,??_CANSetFilter+3
  2836  0006BE  0E16               	movlw	22
  2837  0006C0  D006               	goto	u2470
  2838  0006C2                     u2475:
  2839  0006C2  0100               	movlb	0	; () banked
  2840  0006C4  90D8               	bcf	status,0,c
  2841  0006C6  337C               	rrcf	(??_CANSetFilter+3)& (0+255),f,b
  2842  0006C8  337B               	rrcf	(??_CANSetFilter+2)& (0+255),f,b
  2843  0006CA  337A               	rrcf	(??_CANSetFilter+1)& (0+255),f,b
  2844  0006CC  3379               	rrcf	??_CANSetFilter& (0+255),f,b
  2845  0006CE                     u2470:
  2846  0006CE  2EE8               	decfsz	wreg,f,c
  2847  0006D0  D7F8               	goto	u2475
  2848  0006D2  C079  F07E         	movff	??_CANSetFilter,CANSetFilter@tamp
  2849  0006D6  C07A  F07F         	movff	??_CANSetFilter+1,CANSetFilter@tamp+1
  2850  0006DA  C07B  F080         	movff	??_CANSetFilter+2,CANSetFilter@tamp+2
  2851  0006DE  C07C  F081         	movff	??_CANSetFilter+3,CANSetFilter@tamp+3
  2852                           
  2853                           ; BSR set to: 0
  2854                           ;inc\CANlib.h: 869: tamp = tamp & 0x000000FF;
  2855  0006E2  0100               	movlb	0	; () banked
  2856  0006E4  517E               	movf	CANSetFilter@tamp& (0+255),w,b
  2857  0006E6  0100               	movlb	0	; () banked
  2858  0006E8  6F7E               	movwf	CANSetFilter@tamp& (0+255),b
  2859  0006EA  6B7F               	clrf	(CANSetFilter@tamp+1)& (0+255),b
  2860  0006EC  6B80               	clrf	(CANSetFilter@tamp+2)& (0+255),b
  2861  0006EE  6B81               	clrf	(CANSetFilter@tamp+3)& (0+255),b
  2862                           
  2863                           ; BSR set to: 0
  2864                           ;inc\CANlib.h: 870: RXF0SIDH = (unsigned char) tamp;
  2865  0006F0  C07E  FF00         	movff	CANSetFilter@tamp,3840	;volatile
  2866  0006F4                     l2596:
  2867                           
  2868                           ; BSR set to: 0
  2869                           ;inc\CANlib.h: 871: }
  2870                           ;inc\CANlib.h: 873: if ((numBuffer ==CAN_FILTER_B1_F2) && (type == CAN_CONFIG_XTD_MSG))
  2871  0006F4  0100               	movlb	0	; () banked
  2872  0006F6  057D               	decf	CANSetFilter@numBuffer& (0+255),w,b
  2873  0006F8  A4D8               	btfss	status,2,c
  2874  0006FA  D089               	goto	l2630
  2875                           
  2876                           ; BSR set to: 0
  2877  0006FC  0EF7               	movlw	247
  2878  0006FE  0100               	movlb	0	; () banked
  2879  000700  1978               	xorwf	CANSetFilter@type& (0+255),w,b
  2880  000702  A4D8               	btfss	status,2,c
  2881  000704  D084               	goto	l2630
  2882                           
  2883                           ; BSR set to: 0
  2884                           ;inc\CANlib.h: 874: {
  2885                           ;inc\CANlib.h: 875: RXF1SIDLbits.EXIDEN = 0x01;
  2886  000706  010F               	movlb	15	; () banked
  2887  000708  8705               	bsf	5,3,b	;volatile
  2888                           
  2889                           ; BSR set to: 15
  2890                           ;inc\CANlib.h: 877: tamp = filter & 0x000000FF;
  2891  00070A  0100               	movlb	0	; () banked
  2892  00070C  5174               	movf	CANSetFilter@filter& (0+255),w,b
  2893  00070E  0100               	movlb	0	; () banked
  2894  000710  6F7E               	movwf	CANSetFilter@tamp& (0+255),b
  2895  000712  6B7F               	clrf	(CANSetFilter@tamp+1)& (0+255),b
  2896  000714  6B80               	clrf	(CANSetFilter@tamp+2)& (0+255),b
  2897  000716  6B81               	clrf	(CANSetFilter@tamp+3)& (0+255),b
  2898                           
  2899                           ; BSR set to: 0
  2900                           ;inc\CANlib.h: 878: RXF1EIDL = (unsigned char) tamp;
  2901  000718  C07E  FF07         	movff	CANSetFilter@tamp,3847	;volatile
  2902                           
  2903                           ; BSR set to: 0
  2904                           ;inc\CANlib.h: 880: tamp = filter & 0x0000FF00;
  2905  00071C  0E00               	movlw	0
  2906  00071E  0100               	movlb	0	; () banked
  2907  000720  1574               	andwf	CANSetFilter@filter& (0+255),w,b
  2908  000722  0100               	movlb	0	; () banked
  2909  000724  6F7E               	movwf	CANSetFilter@tamp& (0+255),b
  2910  000726  0EFF               	movlw	255
  2911  000728  0100               	movlb	0	; () banked
  2912  00072A  1575               	andwf	(CANSetFilter@filter+1)& (0+255),w,b
  2913  00072C  0100               	movlb	0	; () banked
  2914  00072E  6F7F               	movwf	(CANSetFilter@tamp+1)& (0+255),b
  2915  000730  0E00               	movlw	0
  2916  000732  0100               	movlb	0	; () banked
  2917  000734  1576               	andwf	(CANSetFilter@filter+2)& (0+255),w,b
  2918  000736  0100               	movlb	0	; () banked
  2919  000738  6F80               	movwf	(CANSetFilter@tamp+2)& (0+255),b
  2920  00073A  0E00               	movlw	0
  2921  00073C  0100               	movlb	0	; () banked
  2922  00073E  1577               	andwf	(CANSetFilter@filter+3)& (0+255),w,b
  2923  000740  0100               	movlb	0	; () banked
  2924  000742  6F81               	movwf	(CANSetFilter@tamp+3)& (0+255),b
  2925                           
  2926                           ; BSR set to: 0
  2927                           ;inc\CANlib.h: 881: tamp = tamp >> 8;
  2928  000744  C07E  F079         	movff	CANSetFilter@tamp,??_CANSetFilter
  2929  000748  C07F  F07A         	movff	CANSetFilter@tamp+1,??_CANSetFilter+1
  2930  00074C  C080  F07B         	movff	CANSetFilter@tamp+2,??_CANSetFilter+2
  2931  000750  C081  F07C         	movff	CANSetFilter@tamp+3,??_CANSetFilter+3
  2932  000754  C07A  F079         	movff	??_CANSetFilter+1,??_CANSetFilter
  2933  000758  C07B  F07A         	movff	??_CANSetFilter+2,??_CANSetFilter+1
  2934  00075C  C07C  F07B         	movff	??_CANSetFilter+3,??_CANSetFilter+2
  2935  000760  0100               	movlb	0	; () banked
  2936  000762  6B7C               	clrf	(??_CANSetFilter+3)& (0+255),b
  2937  000764  C079  F07E         	movff	??_CANSetFilter,CANSetFilter@tamp
  2938  000768  C07A  F07F         	movff	??_CANSetFilter+1,CANSetFilter@tamp+1
  2939  00076C  C07B  F080         	movff	??_CANSetFilter+2,CANSetFilter@tamp+2
  2940  000770  C07C  F081         	movff	??_CANSetFilter+3,CANSetFilter@tamp+3
  2941                           
  2942                           ; BSR set to: 0
  2943                           ;inc\CANlib.h: 882: RXF1EIDH = (unsigned char) tamp;
  2944  000774  C07E  FF06         	movff	CANSetFilter@tamp,3846	;volatile
  2945                           
  2946                           ; BSR set to: 0
  2947                           ;inc\CANlib.h: 884: if (filter & 0x00010000)
  2948  000778  0100               	movlb	0	; () banked
  2949  00077A  A176               	btfss	(CANSetFilter@filter+2)& (0+255),0,b
  2950  00077C  D003               	goto	l450
  2951                           
  2952                           ; BSR set to: 0
  2953                           ;inc\CANlib.h: 885: RXF1SIDLbits.EID16 = 0x01;
  2954  00077E  010F               	movlb	15	; () banked
  2955  000780  8105               	bsf	5,0,b	;volatile
  2956  000782  D002               	goto	l451
  2957  000784                     l450:
  2958                           
  2959                           ; BSR set to: 0
  2960                           ;inc\CANlib.h: 886: else
  2961                           ;inc\CANlib.h: 887: RXF1SIDLbits.EID16 = 0x00;
  2962  000784  010F               	movlb	15	; () banked
  2963  000786  9105               	bcf	5,0,b	;volatile
  2964  000788                     l451:
  2965                           
  2966                           ; BSR set to: 15
  2967                           ;inc\CANlib.h: 889: if (filter & 0x00020000)
  2968  000788  0100               	movlb	0	; () banked
  2969  00078A  A376               	btfss	(CANSetFilter@filter+2)& (0+255),1,b
  2970  00078C  D003               	goto	l452
  2971                           
  2972                           ; BSR set to: 0
  2973                           ;inc\CANlib.h: 890: RXF1SIDLbits.EID17 = 0x01;
  2974  00078E  010F               	movlb	15	; () banked
  2975  000790  8305               	bsf	5,1,b	;volatile
  2976  000792  D002               	goto	l453
  2977  000794                     l452:
  2978                           
  2979                           ; BSR set to: 0
  2980                           ;inc\CANlib.h: 891: else
  2981                           ;inc\CANlib.h: 892: RXF1SIDLbits.EID17 = 0x00;
  2982  000794  010F               	movlb	15	; () banked
  2983  000796  9305               	bcf	5,1,b	;volatile
  2984  000798                     l453:
  2985                           
  2986                           ; BSR set to: 15
  2987                           ;inc\CANlib.h: 894: if (filter & 0x00040000)
  2988  000798  0100               	movlb	0	; () banked
  2989  00079A  A576               	btfss	(CANSetFilter@filter+2)& (0+255),2,b
  2990  00079C  D003               	goto	l454
  2991                           
  2992                           ; BSR set to: 0
  2993                           ;inc\CANlib.h: 895: RXF1SIDLbits.SID0 = 0x01;
  2994  00079E  010F               	movlb	15	; () banked
  2995  0007A0  8B05               	bsf	5,5,b	;volatile
  2996  0007A2  D002               	goto	l455
  2997  0007A4                     l454:
  2998                           
  2999                           ; BSR set to: 0
  3000                           ;inc\CANlib.h: 896: else
  3001                           ;inc\CANlib.h: 897: RXF1SIDLbits.SID0 = 0x00;
  3002  0007A4  010F               	movlb	15	; () banked
  3003  0007A6  9B05               	bcf	5,5,b	;volatile
  3004  0007A8                     l455:
  3005                           
  3006                           ; BSR set to: 15
  3007                           ;inc\CANlib.h: 899: if (filter & 0x00080000)
  3008  0007A8  0100               	movlb	0	; () banked
  3009  0007AA  A776               	btfss	(CANSetFilter@filter+2)& (0+255),3,b
  3010  0007AC  D003               	goto	l456
  3011                           
  3012                           ; BSR set to: 0
  3013                           ;inc\CANlib.h: 900: RXF1SIDLbits.SID1 = 0x01;
  3014  0007AE  010F               	movlb	15	; () banked
  3015  0007B0  8D05               	bsf	5,6,b	;volatile
  3016  0007B2  D002               	goto	l457
  3017  0007B4                     l456:
  3018                           
  3019                           ; BSR set to: 0
  3020                           ;inc\CANlib.h: 901: else
  3021                           ;inc\CANlib.h: 902: RXF1SIDLbits.SID1 = 0x00;
  3022  0007B4  010F               	movlb	15	; () banked
  3023  0007B6  9D05               	bcf	5,6,b	;volatile
  3024  0007B8                     l457:
  3025                           
  3026                           ; BSR set to: 15
  3027                           ;inc\CANlib.h: 904: if (filter & 0x00100000)
  3028  0007B8  0100               	movlb	0	; () banked
  3029  0007BA  A976               	btfss	(CANSetFilter@filter+2)& (0+255),4,b
  3030  0007BC  D003               	goto	l458
  3031                           
  3032                           ; BSR set to: 0
  3033                           ;inc\CANlib.h: 905: RXF1SIDLbits.SID2 = 0x01 ;
  3034  0007BE  010F               	movlb	15	; () banked
  3035  0007C0  8F05               	bsf	5,7,b	;volatile
  3036  0007C2  D002               	goto	l2624
  3037  0007C4                     l458:
  3038                           
  3039                           ; BSR set to: 0
  3040                           ;inc\CANlib.h: 906: else
  3041                           ;inc\CANlib.h: 907: RXF1SIDLbits.SID2 = 0x00 ;
  3042  0007C4  010F               	movlb	15	; () banked
  3043  0007C6  9F05               	bcf	5,7,b	;volatile
  3044  0007C8                     l2624:
  3045                           
  3046                           ; BSR set to: 15
  3047                           ;inc\CANlib.h: 909: tamp = (filter >> 21);
  3048  0007C8  C074  F079         	movff	CANSetFilter@filter,??_CANSetFilter
  3049  0007CC  C075  F07A         	movff	CANSetFilter@filter+1,??_CANSetFilter+1
  3050  0007D0  C076  F07B         	movff	CANSetFilter@filter+2,??_CANSetFilter+2
  3051  0007D4  C077  F07C         	movff	CANSetFilter@filter+3,??_CANSetFilter+3
  3052  0007D8  0E16               	movlw	22
  3053  0007DA  D006               	goto	u2550
  3054  0007DC                     u2555:
  3055  0007DC  0100               	movlb	0	; () banked
  3056  0007DE  90D8               	bcf	status,0,c
  3057  0007E0  337C               	rrcf	(??_CANSetFilter+3)& (0+255),f,b
  3058  0007E2  337B               	rrcf	(??_CANSetFilter+2)& (0+255),f,b
  3059  0007E4  337A               	rrcf	(??_CANSetFilter+1)& (0+255),f,b
  3060  0007E6  3379               	rrcf	??_CANSetFilter& (0+255),f,b
  3061  0007E8                     u2550:
  3062  0007E8  2EE8               	decfsz	wreg,f,c
  3063  0007EA  D7F8               	goto	u2555
  3064  0007EC  C079  F07E         	movff	??_CANSetFilter,CANSetFilter@tamp
  3065  0007F0  C07A  F07F         	movff	??_CANSetFilter+1,CANSetFilter@tamp+1
  3066  0007F4  C07B  F080         	movff	??_CANSetFilter+2,CANSetFilter@tamp+2
  3067  0007F8  C07C  F081         	movff	??_CANSetFilter+3,CANSetFilter@tamp+3
  3068                           
  3069                           ; BSR set to: 0
  3070                           ;inc\CANlib.h: 910: tamp = tamp & 0x000000FF;
  3071  0007FC  0100               	movlb	0	; () banked
  3072  0007FE  517E               	movf	CANSetFilter@tamp& (0+255),w,b
  3073  000800  0100               	movlb	0	; () banked
  3074  000802  6F7E               	movwf	CANSetFilter@tamp& (0+255),b
  3075  000804  6B7F               	clrf	(CANSetFilter@tamp+1)& (0+255),b
  3076  000806  6B80               	clrf	(CANSetFilter@tamp+2)& (0+255),b
  3077  000808  6B81               	clrf	(CANSetFilter@tamp+3)& (0+255),b
  3078                           
  3079                           ; BSR set to: 0
  3080                           ;inc\CANlib.h: 911: RXF1SIDH = (unsigned char) tamp;
  3081  00080A  C07E  FF04         	movff	CANSetFilter@tamp,3844	;volatile
  3082  00080E                     l2630:
  3083                           
  3084                           ; BSR set to: 0
  3085                           ;inc\CANlib.h: 912: }
  3086                           ;inc\CANlib.h: 915: if ((numBuffer ==CAN_FILTER_B2_F1) && (type == CAN_CONFIG_XTD_MSG))
  3087  00080E  0E02               	movlw	2
  3088  000810  0100               	movlb	0	; () banked
  3089  000812  197D               	xorwf	CANSetFilter@numBuffer& (0+255),w,b
  3090  000814  A4D8               	btfss	status,2,c
  3091  000816  D089               	goto	l2664
  3092                           
  3093                           ; BSR set to: 0
  3094  000818  0EF7               	movlw	247
  3095  00081A  0100               	movlb	0	; () banked
  3096  00081C  1978               	xorwf	CANSetFilter@type& (0+255),w,b
  3097  00081E  A4D8               	btfss	status,2,c
  3098  000820  D084               	goto	l2664
  3099                           
  3100                           ; BSR set to: 0
  3101                           ;inc\CANlib.h: 916: {
  3102                           ;inc\CANlib.h: 917: RXF2SIDLbits.EXIDEN = 0x01;
  3103  000822  010F               	movlb	15	; () banked
  3104  000824  8709               	bsf	9,3,b	;volatile
  3105                           
  3106                           ; BSR set to: 15
  3107                           ;inc\CANlib.h: 919: tamp = filter & 0x000000FF;
  3108  000826  0100               	movlb	0	; () banked
  3109  000828  5174               	movf	CANSetFilter@filter& (0+255),w,b
  3110  00082A  0100               	movlb	0	; () banked
  3111  00082C  6F7E               	movwf	CANSetFilter@tamp& (0+255),b
  3112  00082E  6B7F               	clrf	(CANSetFilter@tamp+1)& (0+255),b
  3113  000830  6B80               	clrf	(CANSetFilter@tamp+2)& (0+255),b
  3114  000832  6B81               	clrf	(CANSetFilter@tamp+3)& (0+255),b
  3115                           
  3116                           ; BSR set to: 0
  3117                           ;inc\CANlib.h: 920: RXF2EIDL = (unsigned char) tamp;
  3118  000834  C07E  FF0B         	movff	CANSetFilter@tamp,3851	;volatile
  3119                           
  3120                           ; BSR set to: 0
  3121                           ;inc\CANlib.h: 922: tamp = filter & 0x0000FF00;
  3122  000838  0E00               	movlw	0
  3123  00083A  0100               	movlb	0	; () banked
  3124  00083C  1574               	andwf	CANSetFilter@filter& (0+255),w,b
  3125  00083E  0100               	movlb	0	; () banked
  3126  000840  6F7E               	movwf	CANSetFilter@tamp& (0+255),b
  3127  000842  0EFF               	movlw	255
  3128  000844  0100               	movlb	0	; () banked
  3129  000846  1575               	andwf	(CANSetFilter@filter+1)& (0+255),w,b
  3130  000848  0100               	movlb	0	; () banked
  3131  00084A  6F7F               	movwf	(CANSetFilter@tamp+1)& (0+255),b
  3132  00084C  0E00               	movlw	0
  3133  00084E  0100               	movlb	0	; () banked
  3134  000850  1576               	andwf	(CANSetFilter@filter+2)& (0+255),w,b
  3135  000852  0100               	movlb	0	; () banked
  3136  000854  6F80               	movwf	(CANSetFilter@tamp+2)& (0+255),b
  3137  000856  0E00               	movlw	0
  3138  000858  0100               	movlb	0	; () banked
  3139  00085A  1577               	andwf	(CANSetFilter@filter+3)& (0+255),w,b
  3140  00085C  0100               	movlb	0	; () banked
  3141  00085E  6F81               	movwf	(CANSetFilter@tamp+3)& (0+255),b
  3142                           
  3143                           ; BSR set to: 0
  3144                           ;inc\CANlib.h: 923: tamp = tamp >> 8;
  3145  000860  C07E  F079         	movff	CANSetFilter@tamp,??_CANSetFilter
  3146  000864  C07F  F07A         	movff	CANSetFilter@tamp+1,??_CANSetFilter+1
  3147  000868  C080  F07B         	movff	CANSetFilter@tamp+2,??_CANSetFilter+2
  3148  00086C  C081  F07C         	movff	CANSetFilter@tamp+3,??_CANSetFilter+3
  3149  000870  C07A  F079         	movff	??_CANSetFilter+1,??_CANSetFilter
  3150  000874  C07B  F07A         	movff	??_CANSetFilter+2,??_CANSetFilter+1
  3151  000878  C07C  F07B         	movff	??_CANSetFilter+3,??_CANSetFilter+2
  3152  00087C  0100               	movlb	0	; () banked
  3153  00087E  6B7C               	clrf	(??_CANSetFilter+3)& (0+255),b
  3154  000880  C079  F07E         	movff	??_CANSetFilter,CANSetFilter@tamp
  3155  000884  C07A  F07F         	movff	??_CANSetFilter+1,CANSetFilter@tamp+1
  3156  000888  C07B  F080         	movff	??_CANSetFilter+2,CANSetFilter@tamp+2
  3157  00088C  C07C  F081         	movff	??_CANSetFilter+3,CANSetFilter@tamp+3
  3158                           
  3159                           ; BSR set to: 0
  3160                           ;inc\CANlib.h: 924: RXF2EIDH = (unsigned char) tamp;
  3161  000890  C07E  FF0A         	movff	CANSetFilter@tamp,3850	;volatile
  3162                           
  3163                           ; BSR set to: 0
  3164                           ;inc\CANlib.h: 926: if (filter & 0x00010000)
  3165  000894  0100               	movlb	0	; () banked
  3166  000896  A176               	btfss	(CANSetFilter@filter+2)& (0+255),0,b
  3167  000898  D003               	goto	l461
  3168                           
  3169                           ; BSR set to: 0
  3170                           ;inc\CANlib.h: 927: RXF2SIDLbits.EID16 = 0x01;
  3171  00089A  010F               	movlb	15	; () banked
  3172  00089C  8109               	bsf	9,0,b	;volatile
  3173  00089E  D002               	goto	l462
  3174  0008A0                     l461:
  3175                           
  3176                           ; BSR set to: 0
  3177                           ;inc\CANlib.h: 928: else
  3178                           ;inc\CANlib.h: 929: RXF2SIDLbits.EID16 = 0x00;
  3179  0008A0  010F               	movlb	15	; () banked
  3180  0008A2  9109               	bcf	9,0,b	;volatile
  3181  0008A4                     l462:
  3182                           
  3183                           ; BSR set to: 15
  3184                           ;inc\CANlib.h: 931: if (filter & 0x00020000)
  3185  0008A4  0100               	movlb	0	; () banked
  3186  0008A6  A376               	btfss	(CANSetFilter@filter+2)& (0+255),1,b
  3187  0008A8  D003               	goto	l463
  3188                           
  3189                           ; BSR set to: 0
  3190                           ;inc\CANlib.h: 932: RXF2SIDLbits.EID17 = 0x01;
  3191  0008AA  010F               	movlb	15	; () banked
  3192  0008AC  8309               	bsf	9,1,b	;volatile
  3193  0008AE  D002               	goto	l464
  3194  0008B0                     l463:
  3195                           
  3196                           ; BSR set to: 0
  3197                           ;inc\CANlib.h: 933: else
  3198                           ;inc\CANlib.h: 934: RXF2SIDLbits.EID17 = 0x00;
  3199  0008B0  010F               	movlb	15	; () banked
  3200  0008B2  9309               	bcf	9,1,b	;volatile
  3201  0008B4                     l464:
  3202                           
  3203                           ; BSR set to: 15
  3204                           ;inc\CANlib.h: 936: if (filter & 0x00040000)
  3205  0008B4  0100               	movlb	0	; () banked
  3206  0008B6  A576               	btfss	(CANSetFilter@filter+2)& (0+255),2,b
  3207  0008B8  D003               	goto	l465
  3208                           
  3209                           ; BSR set to: 0
  3210                           ;inc\CANlib.h: 937: RXF2SIDLbits.SID0 = 0x01;
  3211  0008BA  010F               	movlb	15	; () banked
  3212  0008BC  8B09               	bsf	9,5,b	;volatile
  3213  0008BE  D002               	goto	l466
  3214  0008C0                     l465:
  3215                           
  3216                           ; BSR set to: 0
  3217                           ;inc\CANlib.h: 938: else
  3218                           ;inc\CANlib.h: 939: RXF2SIDLbits.SID0 = 0x00;
  3219  0008C0  010F               	movlb	15	; () banked
  3220  0008C2  9B09               	bcf	9,5,b	;volatile
  3221  0008C4                     l466:
  3222                           
  3223                           ; BSR set to: 15
  3224                           ;inc\CANlib.h: 941: if (filter & 0x00080000)
  3225  0008C4  0100               	movlb	0	; () banked
  3226  0008C6  A776               	btfss	(CANSetFilter@filter+2)& (0+255),3,b
  3227  0008C8  D003               	goto	l467
  3228                           
  3229                           ; BSR set to: 0
  3230                           ;inc\CANlib.h: 942: RXF2SIDLbits.SID1 = 0x01;
  3231  0008CA  010F               	movlb	15	; () banked
  3232  0008CC  8D09               	bsf	9,6,b	;volatile
  3233  0008CE  D002               	goto	l468
  3234  0008D0                     l467:
  3235                           
  3236                           ; BSR set to: 0
  3237                           ;inc\CANlib.h: 943: else
  3238                           ;inc\CANlib.h: 944: RXF2SIDLbits.SID1 = 0x00;
  3239  0008D0  010F               	movlb	15	; () banked
  3240  0008D2  9D09               	bcf	9,6,b	;volatile
  3241  0008D4                     l468:
  3242                           
  3243                           ; BSR set to: 15
  3244                           ;inc\CANlib.h: 946: if (filter & 0x00100000)
  3245  0008D4  0100               	movlb	0	; () banked
  3246  0008D6  A976               	btfss	(CANSetFilter@filter+2)& (0+255),4,b
  3247  0008D8  D003               	goto	l469
  3248                           
  3249                           ; BSR set to: 0
  3250                           ;inc\CANlib.h: 947: RXF2SIDLbits.SID2 = 0x01 ;
  3251  0008DA  010F               	movlb	15	; () banked
  3252  0008DC  8F09               	bsf	9,7,b	;volatile
  3253  0008DE  D002               	goto	l2658
  3254  0008E0                     l469:
  3255                           
  3256                           ; BSR set to: 0
  3257                           ;inc\CANlib.h: 948: else
  3258                           ;inc\CANlib.h: 949: RXF2SIDLbits.SID2 = 0x00 ;
  3259  0008E0  010F               	movlb	15	; () banked
  3260  0008E2  9F09               	bcf	9,7,b	;volatile
  3261  0008E4                     l2658:
  3262                           
  3263                           ; BSR set to: 15
  3264                           ;inc\CANlib.h: 951: tamp = (filter >> 21);
  3265  0008E4  C074  F079         	movff	CANSetFilter@filter,??_CANSetFilter
  3266  0008E8  C075  F07A         	movff	CANSetFilter@filter+1,??_CANSetFilter+1
  3267  0008EC  C076  F07B         	movff	CANSetFilter@filter+2,??_CANSetFilter+2
  3268  0008F0  C077  F07C         	movff	CANSetFilter@filter+3,??_CANSetFilter+3
  3269  0008F4  0E16               	movlw	22
  3270  0008F6  D006               	goto	u2630
  3271  0008F8                     u2635:
  3272  0008F8  0100               	movlb	0	; () banked
  3273  0008FA  90D8               	bcf	status,0,c
  3274  0008FC  337C               	rrcf	(??_CANSetFilter+3)& (0+255),f,b
  3275  0008FE  337B               	rrcf	(??_CANSetFilter+2)& (0+255),f,b
  3276  000900  337A               	rrcf	(??_CANSetFilter+1)& (0+255),f,b
  3277  000902  3379               	rrcf	??_CANSetFilter& (0+255),f,b
  3278  000904                     u2630:
  3279  000904  2EE8               	decfsz	wreg,f,c
  3280  000906  D7F8               	goto	u2635
  3281  000908  C079  F07E         	movff	??_CANSetFilter,CANSetFilter@tamp
  3282  00090C  C07A  F07F         	movff	??_CANSetFilter+1,CANSetFilter@tamp+1
  3283  000910  C07B  F080         	movff	??_CANSetFilter+2,CANSetFilter@tamp+2
  3284  000914  C07C  F081         	movff	??_CANSetFilter+3,CANSetFilter@tamp+3
  3285                           
  3286                           ; BSR set to: 0
  3287                           ;inc\CANlib.h: 952: tamp = tamp & 0x000000FF;
  3288  000918  0100               	movlb	0	; () banked
  3289  00091A  517E               	movf	CANSetFilter@tamp& (0+255),w,b
  3290  00091C  0100               	movlb	0	; () banked
  3291  00091E  6F7E               	movwf	CANSetFilter@tamp& (0+255),b
  3292  000920  6B7F               	clrf	(CANSetFilter@tamp+1)& (0+255),b
  3293  000922  6B80               	clrf	(CANSetFilter@tamp+2)& (0+255),b
  3294  000924  6B81               	clrf	(CANSetFilter@tamp+3)& (0+255),b
  3295                           
  3296                           ; BSR set to: 0
  3297                           ;inc\CANlib.h: 953: RXF2SIDH = (unsigned char) tamp;
  3298  000926  C07E  FF08         	movff	CANSetFilter@tamp,3848	;volatile
  3299  00092A                     l2664:
  3300                           
  3301                           ; BSR set to: 0
  3302                           ;inc\CANlib.h: 954: }
  3303                           ;inc\CANlib.h: 956: if ((numBuffer ==CAN_FILTER_B2_F2) && (type == CAN_CONFIG_XTD_MSG))
  3304  00092A  0E03               	movlw	3
  3305  00092C  0100               	movlb	0	; () banked
  3306  00092E  197D               	xorwf	CANSetFilter@numBuffer& (0+255),w,b
  3307  000930  A4D8               	btfss	status,2,c
  3308  000932  D089               	goto	l2698
  3309                           
  3310                           ; BSR set to: 0
  3311  000934  0EF7               	movlw	247
  3312  000936  0100               	movlb	0	; () banked
  3313  000938  1978               	xorwf	CANSetFilter@type& (0+255),w,b
  3314  00093A  A4D8               	btfss	status,2,c
  3315  00093C  D084               	goto	l2698
  3316                           
  3317                           ; BSR set to: 0
  3318                           ;inc\CANlib.h: 957: {
  3319                           ;inc\CANlib.h: 958: RXF3SIDLbits.EXIDEN = 0x01;
  3320  00093E  010F               	movlb	15	; () banked
  3321  000940  870D               	bsf	13,3,b	;volatile
  3322                           
  3323                           ; BSR set to: 15
  3324                           ;inc\CANlib.h: 960: tamp = filter & 0x000000FF;
  3325  000942  0100               	movlb	0	; () banked
  3326  000944  5174               	movf	CANSetFilter@filter& (0+255),w,b
  3327  000946  0100               	movlb	0	; () banked
  3328  000948  6F7E               	movwf	CANSetFilter@tamp& (0+255),b
  3329  00094A  6B7F               	clrf	(CANSetFilter@tamp+1)& (0+255),b
  3330  00094C  6B80               	clrf	(CANSetFilter@tamp+2)& (0+255),b
  3331  00094E  6B81               	clrf	(CANSetFilter@tamp+3)& (0+255),b
  3332                           
  3333                           ; BSR set to: 0
  3334                           ;inc\CANlib.h: 961: RXF3EIDL = (unsigned char) tamp;
  3335  000950  C07E  FF0F         	movff	CANSetFilter@tamp,3855	;volatile
  3336                           
  3337                           ; BSR set to: 0
  3338                           ;inc\CANlib.h: 963: tamp = filter & 0x0000FF00;
  3339  000954  0E00               	movlw	0
  3340  000956  0100               	movlb	0	; () banked
  3341  000958  1574               	andwf	CANSetFilter@filter& (0+255),w,b
  3342  00095A  0100               	movlb	0	; () banked
  3343  00095C  6F7E               	movwf	CANSetFilter@tamp& (0+255),b
  3344  00095E  0EFF               	movlw	255
  3345  000960  0100               	movlb	0	; () banked
  3346  000962  1575               	andwf	(CANSetFilter@filter+1)& (0+255),w,b
  3347  000964  0100               	movlb	0	; () banked
  3348  000966  6F7F               	movwf	(CANSetFilter@tamp+1)& (0+255),b
  3349  000968  0E00               	movlw	0
  3350  00096A  0100               	movlb	0	; () banked
  3351  00096C  1576               	andwf	(CANSetFilter@filter+2)& (0+255),w,b
  3352  00096E  0100               	movlb	0	; () banked
  3353  000970  6F80               	movwf	(CANSetFilter@tamp+2)& (0+255),b
  3354  000972  0E00               	movlw	0
  3355  000974  0100               	movlb	0	; () banked
  3356  000976  1577               	andwf	(CANSetFilter@filter+3)& (0+255),w,b
  3357  000978  0100               	movlb	0	; () banked
  3358  00097A  6F81               	movwf	(CANSetFilter@tamp+3)& (0+255),b
  3359                           
  3360                           ; BSR set to: 0
  3361                           ;inc\CANlib.h: 964: tamp = tamp >> 8;
  3362  00097C  C07E  F079         	movff	CANSetFilter@tamp,??_CANSetFilter
  3363  000980  C07F  F07A         	movff	CANSetFilter@tamp+1,??_CANSetFilter+1
  3364  000984  C080  F07B         	movff	CANSetFilter@tamp+2,??_CANSetFilter+2
  3365  000988  C081  F07C         	movff	CANSetFilter@tamp+3,??_CANSetFilter+3
  3366  00098C  C07A  F079         	movff	??_CANSetFilter+1,??_CANSetFilter
  3367  000990  C07B  F07A         	movff	??_CANSetFilter+2,??_CANSetFilter+1
  3368  000994  C07C  F07B         	movff	??_CANSetFilter+3,??_CANSetFilter+2
  3369  000998  0100               	movlb	0	; () banked
  3370  00099A  6B7C               	clrf	(??_CANSetFilter+3)& (0+255),b
  3371  00099C  C079  F07E         	movff	??_CANSetFilter,CANSetFilter@tamp
  3372  0009A0  C07A  F07F         	movff	??_CANSetFilter+1,CANSetFilter@tamp+1
  3373  0009A4  C07B  F080         	movff	??_CANSetFilter+2,CANSetFilter@tamp+2
  3374  0009A8  C07C  F081         	movff	??_CANSetFilter+3,CANSetFilter@tamp+3
  3375                           
  3376                           ; BSR set to: 0
  3377                           ;inc\CANlib.h: 965: RXF3EIDH = (unsigned char) tamp;
  3378  0009AC  C07E  FF0E         	movff	CANSetFilter@tamp,3854	;volatile
  3379                           
  3380                           ; BSR set to: 0
  3381                           ;inc\CANlib.h: 967: if (filter & 0x00010000)
  3382  0009B0  0100               	movlb	0	; () banked
  3383  0009B2  A176               	btfss	(CANSetFilter@filter+2)& (0+255),0,b
  3384  0009B4  D003               	goto	l472
  3385                           
  3386                           ; BSR set to: 0
  3387                           ;inc\CANlib.h: 968: RXF3SIDLbits.EID16 = 0x01;
  3388  0009B6  010F               	movlb	15	; () banked
  3389  0009B8  810D               	bsf	13,0,b	;volatile
  3390  0009BA  D002               	goto	l473
  3391  0009BC                     l472:
  3392                           
  3393                           ; BSR set to: 0
  3394                           ;inc\CANlib.h: 969: else
  3395                           ;inc\CANlib.h: 970: RXF3SIDLbits.EID16 = 0x00;
  3396  0009BC  010F               	movlb	15	; () banked
  3397  0009BE  910D               	bcf	13,0,b	;volatile
  3398  0009C0                     l473:
  3399                           
  3400                           ; BSR set to: 15
  3401                           ;inc\CANlib.h: 972: if (filter & 0x00020000)
  3402  0009C0  0100               	movlb	0	; () banked
  3403  0009C2  A376               	btfss	(CANSetFilter@filter+2)& (0+255),1,b
  3404  0009C4  D003               	goto	l474
  3405                           
  3406                           ; BSR set to: 0
  3407                           ;inc\CANlib.h: 973: RXF3SIDLbits.EID17 = 0x01;
  3408  0009C6  010F               	movlb	15	; () banked
  3409  0009C8  830D               	bsf	13,1,b	;volatile
  3410  0009CA  D002               	goto	l475
  3411  0009CC                     l474:
  3412                           
  3413                           ; BSR set to: 0
  3414                           ;inc\CANlib.h: 974: else
  3415                           ;inc\CANlib.h: 975: RXF3SIDLbits.EID17 = 0x00;
  3416  0009CC  010F               	movlb	15	; () banked
  3417  0009CE  930D               	bcf	13,1,b	;volatile
  3418  0009D0                     l475:
  3419                           
  3420                           ; BSR set to: 15
  3421                           ;inc\CANlib.h: 977: if (filter & 0x00040000)
  3422  0009D0  0100               	movlb	0	; () banked
  3423  0009D2  A576               	btfss	(CANSetFilter@filter+2)& (0+255),2,b
  3424  0009D4  D003               	goto	l476
  3425                           
  3426                           ; BSR set to: 0
  3427                           ;inc\CANlib.h: 978: RXF3SIDLbits.SID0 = 0x01;
  3428  0009D6  010F               	movlb	15	; () banked
  3429  0009D8  8B0D               	bsf	13,5,b	;volatile
  3430  0009DA  D002               	goto	l477
  3431  0009DC                     l476:
  3432                           
  3433                           ; BSR set to: 0
  3434                           ;inc\CANlib.h: 979: else
  3435                           ;inc\CANlib.h: 980: RXF3SIDLbits.SID0 = 0x00;
  3436  0009DC  010F               	movlb	15	; () banked
  3437  0009DE  9B0D               	bcf	13,5,b	;volatile
  3438  0009E0                     l477:
  3439                           
  3440                           ; BSR set to: 15
  3441                           ;inc\CANlib.h: 982: if (filter & 0x00080000)
  3442  0009E0  0100               	movlb	0	; () banked
  3443  0009E2  A776               	btfss	(CANSetFilter@filter+2)& (0+255),3,b
  3444  0009E4  D003               	goto	l478
  3445                           
  3446                           ; BSR set to: 0
  3447                           ;inc\CANlib.h: 983: RXF3SIDLbits.SID1 = 0x01;
  3448  0009E6  010F               	movlb	15	; () banked
  3449  0009E8  8D0D               	bsf	13,6,b	;volatile
  3450  0009EA  D002               	goto	l479
  3451  0009EC                     l478:
  3452                           
  3453                           ; BSR set to: 0
  3454                           ;inc\CANlib.h: 984: else
  3455                           ;inc\CANlib.h: 985: RXF3SIDLbits.SID1 = 0x00;
  3456  0009EC  010F               	movlb	15	; () banked
  3457  0009EE  9D0D               	bcf	13,6,b	;volatile
  3458  0009F0                     l479:
  3459                           
  3460                           ; BSR set to: 15
  3461                           ;inc\CANlib.h: 987: if (filter & 0x00100000)
  3462  0009F0  0100               	movlb	0	; () banked
  3463  0009F2  A976               	btfss	(CANSetFilter@filter+2)& (0+255),4,b
  3464  0009F4  D003               	goto	l480
  3465                           
  3466                           ; BSR set to: 0
  3467                           ;inc\CANlib.h: 988: RXF3SIDLbits.SID2 = 0x01 ;
  3468  0009F6  010F               	movlb	15	; () banked
  3469  0009F8  8F0D               	bsf	13,7,b	;volatile
  3470  0009FA  D002               	goto	l2692
  3471  0009FC                     l480:
  3472                           
  3473                           ; BSR set to: 0
  3474                           ;inc\CANlib.h: 989: else
  3475                           ;inc\CANlib.h: 990: RXF3SIDLbits.SID2 = 0x00 ;
  3476  0009FC  010F               	movlb	15	; () banked
  3477  0009FE  9F0D               	bcf	13,7,b	;volatile
  3478  000A00                     l2692:
  3479                           
  3480                           ; BSR set to: 15
  3481                           ;inc\CANlib.h: 992: tamp = (filter >> 21);
  3482  000A00  C074  F079         	movff	CANSetFilter@filter,??_CANSetFilter
  3483  000A04  C075  F07A         	movff	CANSetFilter@filter+1,??_CANSetFilter+1
  3484  000A08  C076  F07B         	movff	CANSetFilter@filter+2,??_CANSetFilter+2
  3485  000A0C  C077  F07C         	movff	CANSetFilter@filter+3,??_CANSetFilter+3
  3486  000A10  0E16               	movlw	22
  3487  000A12  D006               	goto	u2710
  3488  000A14                     u2715:
  3489  000A14  0100               	movlb	0	; () banked
  3490  000A16  90D8               	bcf	status,0,c
  3491  000A18  337C               	rrcf	(??_CANSetFilter+3)& (0+255),f,b
  3492  000A1A  337B               	rrcf	(??_CANSetFilter+2)& (0+255),f,b
  3493  000A1C  337A               	rrcf	(??_CANSetFilter+1)& (0+255),f,b
  3494  000A1E  3379               	rrcf	??_CANSetFilter& (0+255),f,b
  3495  000A20                     u2710:
  3496  000A20  2EE8               	decfsz	wreg,f,c
  3497  000A22  D7F8               	goto	u2715
  3498  000A24  C079  F07E         	movff	??_CANSetFilter,CANSetFilter@tamp
  3499  000A28  C07A  F07F         	movff	??_CANSetFilter+1,CANSetFilter@tamp+1
  3500  000A2C  C07B  F080         	movff	??_CANSetFilter+2,CANSetFilter@tamp+2
  3501  000A30  C07C  F081         	movff	??_CANSetFilter+3,CANSetFilter@tamp+3
  3502                           
  3503                           ; BSR set to: 0
  3504                           ;inc\CANlib.h: 993: tamp = tamp & 0x000000FF;
  3505  000A34  0100               	movlb	0	; () banked
  3506  000A36  517E               	movf	CANSetFilter@tamp& (0+255),w,b
  3507  000A38  0100               	movlb	0	; () banked
  3508  000A3A  6F7E               	movwf	CANSetFilter@tamp& (0+255),b
  3509  000A3C  6B7F               	clrf	(CANSetFilter@tamp+1)& (0+255),b
  3510  000A3E  6B80               	clrf	(CANSetFilter@tamp+2)& (0+255),b
  3511  000A40  6B81               	clrf	(CANSetFilter@tamp+3)& (0+255),b
  3512                           
  3513                           ; BSR set to: 0
  3514                           ;inc\CANlib.h: 994: RXF3SIDH = (unsigned char) tamp;
  3515  000A42  C07E  FF0C         	movff	CANSetFilter@tamp,3852	;volatile
  3516  000A46                     l2698:
  3517                           
  3518                           ; BSR set to: 0
  3519                           ;inc\CANlib.h: 995: }
  3520                           ;inc\CANlib.h: 997: if ((numBuffer ==CAN_FILTER_B2_F3) && (type == CAN_CONFIG_XTD_MSG))
  3521  000A46  0E04               	movlw	4
  3522  000A48  0100               	movlb	0	; () banked
  3523  000A4A  197D               	xorwf	CANSetFilter@numBuffer& (0+255),w,b
  3524  000A4C  A4D8               	btfss	status,2,c
  3525  000A4E  D089               	goto	l2732
  3526                           
  3527                           ; BSR set to: 0
  3528  000A50  0EF7               	movlw	247
  3529  000A52  0100               	movlb	0	; () banked
  3530  000A54  1978               	xorwf	CANSetFilter@type& (0+255),w,b
  3531  000A56  A4D8               	btfss	status,2,c
  3532  000A58  D084               	goto	l2732
  3533                           
  3534                           ; BSR set to: 0
  3535                           ;inc\CANlib.h: 998: {
  3536                           ;inc\CANlib.h: 999: RXF4SIDLbits.EXIDEN = 0x01;
  3537  000A5A  010F               	movlb	15	; () banked
  3538  000A5C  8711               	bsf	17,3,b	;volatile
  3539                           
  3540                           ; BSR set to: 15
  3541                           ;inc\CANlib.h: 1001: tamp = filter & 0x000000FF;
  3542  000A5E  0100               	movlb	0	; () banked
  3543  000A60  5174               	movf	CANSetFilter@filter& (0+255),w,b
  3544  000A62  0100               	movlb	0	; () banked
  3545  000A64  6F7E               	movwf	CANSetFilter@tamp& (0+255),b
  3546  000A66  6B7F               	clrf	(CANSetFilter@tamp+1)& (0+255),b
  3547  000A68  6B80               	clrf	(CANSetFilter@tamp+2)& (0+255),b
  3548  000A6A  6B81               	clrf	(CANSetFilter@tamp+3)& (0+255),b
  3549                           
  3550                           ; BSR set to: 0
  3551                           ;inc\CANlib.h: 1002: RXF4EIDL = (unsigned char) tamp;
  3552  000A6C  C07E  FF13         	movff	CANSetFilter@tamp,3859	;volatile
  3553                           
  3554                           ; BSR set to: 0
  3555                           ;inc\CANlib.h: 1004: tamp = filter & 0x0000FF00;
  3556  000A70  0E00               	movlw	0
  3557  000A72  0100               	movlb	0	; () banked
  3558  000A74  1574               	andwf	CANSetFilter@filter& (0+255),w,b
  3559  000A76  0100               	movlb	0	; () banked
  3560  000A78  6F7E               	movwf	CANSetFilter@tamp& (0+255),b
  3561  000A7A  0EFF               	movlw	255
  3562  000A7C  0100               	movlb	0	; () banked
  3563  000A7E  1575               	andwf	(CANSetFilter@filter+1)& (0+255),w,b
  3564  000A80  0100               	movlb	0	; () banked
  3565  000A82  6F7F               	movwf	(CANSetFilter@tamp+1)& (0+255),b
  3566  000A84  0E00               	movlw	0
  3567  000A86  0100               	movlb	0	; () banked
  3568  000A88  1576               	andwf	(CANSetFilter@filter+2)& (0+255),w,b
  3569  000A8A  0100               	movlb	0	; () banked
  3570  000A8C  6F80               	movwf	(CANSetFilter@tamp+2)& (0+255),b
  3571  000A8E  0E00               	movlw	0
  3572  000A90  0100               	movlb	0	; () banked
  3573  000A92  1577               	andwf	(CANSetFilter@filter+3)& (0+255),w,b
  3574  000A94  0100               	movlb	0	; () banked
  3575  000A96  6F81               	movwf	(CANSetFilter@tamp+3)& (0+255),b
  3576                           
  3577                           ; BSR set to: 0
  3578                           ;inc\CANlib.h: 1005: tamp = tamp >> 8;
  3579  000A98  C07E  F079         	movff	CANSetFilter@tamp,??_CANSetFilter
  3580  000A9C  C07F  F07A         	movff	CANSetFilter@tamp+1,??_CANSetFilter+1
  3581  000AA0  C080  F07B         	movff	CANSetFilter@tamp+2,??_CANSetFilter+2
  3582  000AA4  C081  F07C         	movff	CANSetFilter@tamp+3,??_CANSetFilter+3
  3583  000AA8  C07A  F079         	movff	??_CANSetFilter+1,??_CANSetFilter
  3584  000AAC  C07B  F07A         	movff	??_CANSetFilter+2,??_CANSetFilter+1
  3585  000AB0  C07C  F07B         	movff	??_CANSetFilter+3,??_CANSetFilter+2
  3586  000AB4  0100               	movlb	0	; () banked
  3587  000AB6  6B7C               	clrf	(??_CANSetFilter+3)& (0+255),b
  3588  000AB8  C079  F07E         	movff	??_CANSetFilter,CANSetFilter@tamp
  3589  000ABC  C07A  F07F         	movff	??_CANSetFilter+1,CANSetFilter@tamp+1
  3590  000AC0  C07B  F080         	movff	??_CANSetFilter+2,CANSetFilter@tamp+2
  3591  000AC4  C07C  F081         	movff	??_CANSetFilter+3,CANSetFilter@tamp+3
  3592                           
  3593                           ; BSR set to: 0
  3594                           ;inc\CANlib.h: 1006: RXF4EIDH = (unsigned char) tamp;
  3595  000AC8  C07E  FF12         	movff	CANSetFilter@tamp,3858	;volatile
  3596                           
  3597                           ; BSR set to: 0
  3598                           ;inc\CANlib.h: 1008: if (filter & 0x00010000)
  3599  000ACC  0100               	movlb	0	; () banked
  3600  000ACE  A176               	btfss	(CANSetFilter@filter+2)& (0+255),0,b
  3601  000AD0  D003               	goto	l483
  3602                           
  3603                           ; BSR set to: 0
  3604                           ;inc\CANlib.h: 1009: RXF4SIDLbits.EID16 = 0x01;
  3605  000AD2  010F               	movlb	15	; () banked
  3606  000AD4  8111               	bsf	17,0,b	;volatile
  3607  000AD6  D002               	goto	l484
  3608  000AD8                     l483:
  3609                           
  3610                           ; BSR set to: 0
  3611                           ;inc\CANlib.h: 1010: else
  3612                           ;inc\CANlib.h: 1011: RXF4SIDLbits.EID16 = 0x00;
  3613  000AD8  010F               	movlb	15	; () banked
  3614  000ADA  9111               	bcf	17,0,b	;volatile
  3615  000ADC                     l484:
  3616                           
  3617                           ; BSR set to: 15
  3618                           ;inc\CANlib.h: 1013: if (filter & 0x00020000)
  3619  000ADC  0100               	movlb	0	; () banked
  3620  000ADE  A376               	btfss	(CANSetFilter@filter+2)& (0+255),1,b
  3621  000AE0  D003               	goto	l485
  3622                           
  3623                           ; BSR set to: 0
  3624                           ;inc\CANlib.h: 1014: RXF4SIDLbits.EID17 = 0x01;
  3625  000AE2  010F               	movlb	15	; () banked
  3626  000AE4  8311               	bsf	17,1,b	;volatile
  3627  000AE6  D002               	goto	l486
  3628  000AE8                     l485:
  3629                           
  3630                           ; BSR set to: 0
  3631                           ;inc\CANlib.h: 1015: else
  3632                           ;inc\CANlib.h: 1016: RXF4SIDLbits.EID17 = 0x00;
  3633  000AE8  010F               	movlb	15	; () banked
  3634  000AEA  9311               	bcf	17,1,b	;volatile
  3635  000AEC                     l486:
  3636                           
  3637                           ; BSR set to: 15
  3638                           ;inc\CANlib.h: 1018: if (filter & 0x00040000)
  3639  000AEC  0100               	movlb	0	; () banked
  3640  000AEE  A576               	btfss	(CANSetFilter@filter+2)& (0+255),2,b
  3641  000AF0  D003               	goto	l487
  3642                           
  3643                           ; BSR set to: 0
  3644                           ;inc\CANlib.h: 1019: RXF4SIDLbits.SID0 = 0x01;
  3645  000AF2  010F               	movlb	15	; () banked
  3646  000AF4  8B11               	bsf	17,5,b	;volatile
  3647  000AF6  D002               	goto	l488
  3648  000AF8                     l487:
  3649                           
  3650                           ; BSR set to: 0
  3651                           ;inc\CANlib.h: 1020: else
  3652                           ;inc\CANlib.h: 1021: RXF4SIDLbits.SID0 = 0x00;
  3653  000AF8  010F               	movlb	15	; () banked
  3654  000AFA  9B11               	bcf	17,5,b	;volatile
  3655  000AFC                     l488:
  3656                           
  3657                           ; BSR set to: 15
  3658                           ;inc\CANlib.h: 1023: if (filter & 0x00080000)
  3659  000AFC  0100               	movlb	0	; () banked
  3660  000AFE  A776               	btfss	(CANSetFilter@filter+2)& (0+255),3,b
  3661  000B00  D003               	goto	l489
  3662                           
  3663                           ; BSR set to: 0
  3664                           ;inc\CANlib.h: 1024: RXF4SIDLbits.SID1 = 0x01;
  3665  000B02  010F               	movlb	15	; () banked
  3666  000B04  8D11               	bsf	17,6,b	;volatile
  3667  000B06  D002               	goto	l490
  3668  000B08                     l489:
  3669                           
  3670                           ; BSR set to: 0
  3671                           ;inc\CANlib.h: 1025: else
  3672                           ;inc\CANlib.h: 1026: RXF4SIDLbits.SID1 = 0x00;
  3673  000B08  010F               	movlb	15	; () banked
  3674  000B0A  9D11               	bcf	17,6,b	;volatile
  3675  000B0C                     l490:
  3676                           
  3677                           ; BSR set to: 15
  3678                           ;inc\CANlib.h: 1028: if (filter & 0x00100000)
  3679  000B0C  0100               	movlb	0	; () banked
  3680  000B0E  A976               	btfss	(CANSetFilter@filter+2)& (0+255),4,b
  3681  000B10  D003               	goto	l491
  3682                           
  3683                           ; BSR set to: 0
  3684                           ;inc\CANlib.h: 1029: RXF4SIDLbits.SID2 = 0x01 ;
  3685  000B12  010F               	movlb	15	; () banked
  3686  000B14  8F11               	bsf	17,7,b	;volatile
  3687  000B16  D002               	goto	l2726
  3688  000B18                     l491:
  3689                           
  3690                           ; BSR set to: 0
  3691                           ;inc\CANlib.h: 1030: else
  3692                           ;inc\CANlib.h: 1031: RXF4SIDLbits.SID2 = 0x00 ;
  3693  000B18  010F               	movlb	15	; () banked
  3694  000B1A  9F11               	bcf	17,7,b	;volatile
  3695  000B1C                     l2726:
  3696                           
  3697                           ; BSR set to: 15
  3698                           ;inc\CANlib.h: 1033: tamp = (filter >> 21);
  3699  000B1C  C074  F079         	movff	CANSetFilter@filter,??_CANSetFilter
  3700  000B20  C075  F07A         	movff	CANSetFilter@filter+1,??_CANSetFilter+1
  3701  000B24  C076  F07B         	movff	CANSetFilter@filter+2,??_CANSetFilter+2
  3702  000B28  C077  F07C         	movff	CANSetFilter@filter+3,??_CANSetFilter+3
  3703  000B2C  0E16               	movlw	22
  3704  000B2E  D006               	goto	u2790
  3705  000B30                     u2795:
  3706  000B30  0100               	movlb	0	; () banked
  3707  000B32  90D8               	bcf	status,0,c
  3708  000B34  337C               	rrcf	(??_CANSetFilter+3)& (0+255),f,b
  3709  000B36  337B               	rrcf	(??_CANSetFilter+2)& (0+255),f,b
  3710  000B38  337A               	rrcf	(??_CANSetFilter+1)& (0+255),f,b
  3711  000B3A  3379               	rrcf	??_CANSetFilter& (0+255),f,b
  3712  000B3C                     u2790:
  3713  000B3C  2EE8               	decfsz	wreg,f,c
  3714  000B3E  D7F8               	goto	u2795
  3715  000B40  C079  F07E         	movff	??_CANSetFilter,CANSetFilter@tamp
  3716  000B44  C07A  F07F         	movff	??_CANSetFilter+1,CANSetFilter@tamp+1
  3717  000B48  C07B  F080         	movff	??_CANSetFilter+2,CANSetFilter@tamp+2
  3718  000B4C  C07C  F081         	movff	??_CANSetFilter+3,CANSetFilter@tamp+3
  3719                           
  3720                           ; BSR set to: 0
  3721                           ;inc\CANlib.h: 1034: tamp = tamp & 0x000000FF;
  3722  000B50  0100               	movlb	0	; () banked
  3723  000B52  517E               	movf	CANSetFilter@tamp& (0+255),w,b
  3724  000B54  0100               	movlb	0	; () banked
  3725  000B56  6F7E               	movwf	CANSetFilter@tamp& (0+255),b
  3726  000B58  6B7F               	clrf	(CANSetFilter@tamp+1)& (0+255),b
  3727  000B5A  6B80               	clrf	(CANSetFilter@tamp+2)& (0+255),b
  3728  000B5C  6B81               	clrf	(CANSetFilter@tamp+3)& (0+255),b
  3729                           
  3730                           ; BSR set to: 0
  3731                           ;inc\CANlib.h: 1035: RXF4SIDH = (unsigned char) tamp;
  3732  000B5E  C07E  FF10         	movff	CANSetFilter@tamp,3856	;volatile
  3733  000B62                     l2732:
  3734                           
  3735                           ; BSR set to: 0
  3736                           ;inc\CANlib.h: 1036: }
  3737                           ;inc\CANlib.h: 1038: if ((numBuffer ==CAN_FILTER_B2_F4) && (type == CAN_CONFIG_XTD_MSG))
  3738  000B62  0E05               	movlw	5
  3739  000B64  0100               	movlb	0	; () banked
  3740  000B66  197D               	xorwf	CANSetFilter@numBuffer& (0+255),w,b
  3741  000B68  A4D8               	btfss	status,2,c
  3742  000B6A  0012               	return	
  3743                           
  3744                           ; BSR set to: 0
  3745  000B6C  0EF7               	movlw	247
  3746  000B6E  0100               	movlb	0	; () banked
  3747  000B70  1978               	xorwf	CANSetFilter@type& (0+255),w,b
  3748  000B72  A4D8               	btfss	status,2,c
  3749  000B74  0012               	return	
  3750                           
  3751                           ; BSR set to: 0
  3752                           ;inc\CANlib.h: 1039: {
  3753                           ;inc\CANlib.h: 1040: RXF5SIDLbits.EXIDEN = 0x01;
  3754  000B76  010F               	movlb	15	; () banked
  3755  000B78  8715               	bsf	21,3,b	;volatile
  3756                           
  3757                           ; BSR set to: 15
  3758                           ;inc\CANlib.h: 1042: tamp = filter & 0x000000FF;
  3759  000B7A  0100               	movlb	0	; () banked
  3760  000B7C  5174               	movf	CANSetFilter@filter& (0+255),w,b
  3761  000B7E  0100               	movlb	0	; () banked
  3762  000B80  6F7E               	movwf	CANSetFilter@tamp& (0+255),b
  3763  000B82  6B7F               	clrf	(CANSetFilter@tamp+1)& (0+255),b
  3764  000B84  6B80               	clrf	(CANSetFilter@tamp+2)& (0+255),b
  3765  000B86  6B81               	clrf	(CANSetFilter@tamp+3)& (0+255),b
  3766                           
  3767                           ; BSR set to: 0
  3768                           ;inc\CANlib.h: 1043: RXF5EIDL = (unsigned char) tamp;
  3769  000B88  C07E  FF17         	movff	CANSetFilter@tamp,3863	;volatile
  3770                           
  3771                           ; BSR set to: 0
  3772                           ;inc\CANlib.h: 1045: tamp = filter & 0x0000FF00;
  3773  000B8C  0E00               	movlw	0
  3774  000B8E  0100               	movlb	0	; () banked
  3775  000B90  1574               	andwf	CANSetFilter@filter& (0+255),w,b
  3776  000B92  0100               	movlb	0	; () banked
  3777  000B94  6F7E               	movwf	CANSetFilter@tamp& (0+255),b
  3778  000B96  0EFF               	movlw	255
  3779  000B98  0100               	movlb	0	; () banked
  3780  000B9A  1575               	andwf	(CANSetFilter@filter+1)& (0+255),w,b
  3781  000B9C  0100               	movlb	0	; () banked
  3782  000B9E  6F7F               	movwf	(CANSetFilter@tamp+1)& (0+255),b
  3783  000BA0  0E00               	movlw	0
  3784  000BA2  0100               	movlb	0	; () banked
  3785  000BA4  1576               	andwf	(CANSetFilter@filter+2)& (0+255),w,b
  3786  000BA6  0100               	movlb	0	; () banked
  3787  000BA8  6F80               	movwf	(CANSetFilter@tamp+2)& (0+255),b
  3788  000BAA  0E00               	movlw	0
  3789  000BAC  0100               	movlb	0	; () banked
  3790  000BAE  1577               	andwf	(CANSetFilter@filter+3)& (0+255),w,b
  3791  000BB0  0100               	movlb	0	; () banked
  3792  000BB2  6F81               	movwf	(CANSetFilter@tamp+3)& (0+255),b
  3793                           
  3794                           ; BSR set to: 0
  3795                           ;inc\CANlib.h: 1046: tamp = tamp >> 8;
  3796  000BB4  C07E  F079         	movff	CANSetFilter@tamp,??_CANSetFilter
  3797  000BB8  C07F  F07A         	movff	CANSetFilter@tamp+1,??_CANSetFilter+1
  3798  000BBC  C080  F07B         	movff	CANSetFilter@tamp+2,??_CANSetFilter+2
  3799  000BC0  C081  F07C         	movff	CANSetFilter@tamp+3,??_CANSetFilter+3
  3800  000BC4  C07A  F079         	movff	??_CANSetFilter+1,??_CANSetFilter
  3801  000BC8  C07B  F07A         	movff	??_CANSetFilter+2,??_CANSetFilter+1
  3802  000BCC  C07C  F07B         	movff	??_CANSetFilter+3,??_CANSetFilter+2
  3803  000BD0  0100               	movlb	0	; () banked
  3804  000BD2  6B7C               	clrf	(??_CANSetFilter+3)& (0+255),b
  3805  000BD4  C079  F07E         	movff	??_CANSetFilter,CANSetFilter@tamp
  3806  000BD8  C07A  F07F         	movff	??_CANSetFilter+1,CANSetFilter@tamp+1
  3807  000BDC  C07B  F080         	movff	??_CANSetFilter+2,CANSetFilter@tamp+2
  3808  000BE0  C07C  F081         	movff	??_CANSetFilter+3,CANSetFilter@tamp+3
  3809                           
  3810                           ; BSR set to: 0
  3811                           ;inc\CANlib.h: 1047: RXF5EIDH = (unsigned char) tamp;
  3812  000BE4  C07E  FF16         	movff	CANSetFilter@tamp,3862	;volatile
  3813                           
  3814                           ; BSR set to: 0
  3815                           ;inc\CANlib.h: 1049: if (filter & 0x00010000)
  3816  000BE8  0100               	movlb	0	; () banked
  3817  000BEA  A176               	btfss	(CANSetFilter@filter+2)& (0+255),0,b
  3818  000BEC  D003               	goto	l494
  3819                           
  3820                           ; BSR set to: 0
  3821                           ;inc\CANlib.h: 1050: RXF5SIDLbits.EID16 = 0x01;
  3822  000BEE  010F               	movlb	15	; () banked
  3823  000BF0  8115               	bsf	21,0,b	;volatile
  3824  000BF2  D002               	goto	l495
  3825  000BF4                     l494:
  3826                           
  3827                           ; BSR set to: 0
  3828                           ;inc\CANlib.h: 1051: else
  3829                           ;inc\CANlib.h: 1052: RXF5SIDLbits.EID16 = 0x00;
  3830  000BF4  010F               	movlb	15	; () banked
  3831  000BF6  9115               	bcf	21,0,b	;volatile
  3832  000BF8                     l495:
  3833                           
  3834                           ; BSR set to: 15
  3835                           ;inc\CANlib.h: 1054: if (filter & 0x00020000)
  3836  000BF8  0100               	movlb	0	; () banked
  3837  000BFA  A376               	btfss	(CANSetFilter@filter+2)& (0+255),1,b
  3838  000BFC  D003               	goto	l496
  3839                           
  3840                           ; BSR set to: 0
  3841                           ;inc\CANlib.h: 1055: RXF5SIDLbits.EID17 = 0x01;
  3842  000BFE  010F               	movlb	15	; () banked
  3843  000C00  8315               	bsf	21,1,b	;volatile
  3844  000C02  D002               	goto	l497
  3845  000C04                     l496:
  3846                           
  3847                           ; BSR set to: 0
  3848                           ;inc\CANlib.h: 1056: else
  3849                           ;inc\CANlib.h: 1057: RXF5SIDLbits.EID17 = 0x00;
  3850  000C04  010F               	movlb	15	; () banked
  3851  000C06  9315               	bcf	21,1,b	;volatile
  3852  000C08                     l497:
  3853                           
  3854                           ; BSR set to: 15
  3855                           ;inc\CANlib.h: 1059: if (filter & 0x00040000)
  3856  000C08  0100               	movlb	0	; () banked
  3857  000C0A  A576               	btfss	(CANSetFilter@filter+2)& (0+255),2,b
  3858  000C0C  D003               	goto	l498
  3859                           
  3860                           ; BSR set to: 0
  3861                           ;inc\CANlib.h: 1060: RXF5SIDLbits.SID0 = 0x01;
  3862  000C0E  010F               	movlb	15	; () banked
  3863  000C10  8B15               	bsf	21,5,b	;volatile
  3864  000C12  D002               	goto	l499
  3865  000C14                     l498:
  3866                           
  3867                           ; BSR set to: 0
  3868                           ;inc\CANlib.h: 1061: else
  3869                           ;inc\CANlib.h: 1062: RXF5SIDLbits.SID0 = 0x00;
  3870  000C14  010F               	movlb	15	; () banked
  3871  000C16  9B15               	bcf	21,5,b	;volatile
  3872  000C18                     l499:
  3873                           
  3874                           ; BSR set to: 15
  3875                           ;inc\CANlib.h: 1064: if (filter & 0x00080000)
  3876  000C18  0100               	movlb	0	; () banked
  3877  000C1A  A776               	btfss	(CANSetFilter@filter+2)& (0+255),3,b
  3878  000C1C  D003               	goto	l500
  3879                           
  3880                           ; BSR set to: 0
  3881                           ;inc\CANlib.h: 1065: RXF5SIDLbits.SID1 = 0x01;
  3882  000C1E  010F               	movlb	15	; () banked
  3883  000C20  8D15               	bsf	21,6,b	;volatile
  3884  000C22  D002               	goto	l501
  3885  000C24                     l500:
  3886                           
  3887                           ; BSR set to: 0
  3888                           ;inc\CANlib.h: 1066: else
  3889                           ;inc\CANlib.h: 1067: RXF5SIDLbits.SID1 = 0x00;
  3890  000C24  010F               	movlb	15	; () banked
  3891  000C26  9D15               	bcf	21,6,b	;volatile
  3892  000C28                     l501:
  3893                           
  3894                           ; BSR set to: 15
  3895                           ;inc\CANlib.h: 1069: if (filter & 0x00100000)
  3896  000C28  0100               	movlb	0	; () banked
  3897  000C2A  A976               	btfss	(CANSetFilter@filter+2)& (0+255),4,b
  3898  000C2C  D003               	goto	l502
  3899                           
  3900                           ; BSR set to: 0
  3901                           ;inc\CANlib.h: 1070: RXF5SIDLbits.SID2 = 0x01 ;
  3902  000C2E  010F               	movlb	15	; () banked
  3903  000C30  8F15               	bsf	21,7,b	;volatile
  3904  000C32  D002               	goto	l2760
  3905  000C34                     l502:
  3906                           
  3907                           ; BSR set to: 0
  3908                           ;inc\CANlib.h: 1071: else
  3909                           ;inc\CANlib.h: 1072: RXF5SIDLbits.SID2 = 0x00 ;
  3910  000C34  010F               	movlb	15	; () banked
  3911  000C36  9F15               	bcf	21,7,b	;volatile
  3912  000C38                     l2760:
  3913                           
  3914                           ; BSR set to: 15
  3915                           ;inc\CANlib.h: 1074: tamp = (filter >> 21);
  3916  000C38  C074  F079         	movff	CANSetFilter@filter,??_CANSetFilter
  3917  000C3C  C075  F07A         	movff	CANSetFilter@filter+1,??_CANSetFilter+1
  3918  000C40  C076  F07B         	movff	CANSetFilter@filter+2,??_CANSetFilter+2
  3919  000C44  C077  F07C         	movff	CANSetFilter@filter+3,??_CANSetFilter+3
  3920  000C48  0E16               	movlw	22
  3921  000C4A  D006               	goto	u2870
  3922  000C4C                     u2875:
  3923  000C4C  0100               	movlb	0	; () banked
  3924  000C4E  90D8               	bcf	status,0,c
  3925  000C50  337C               	rrcf	(??_CANSetFilter+3)& (0+255),f,b
  3926  000C52  337B               	rrcf	(??_CANSetFilter+2)& (0+255),f,b
  3927  000C54  337A               	rrcf	(??_CANSetFilter+1)& (0+255),f,b
  3928  000C56  3379               	rrcf	??_CANSetFilter& (0+255),f,b
  3929  000C58                     u2870:
  3930  000C58  2EE8               	decfsz	wreg,f,c
  3931  000C5A  D7F8               	goto	u2875
  3932  000C5C  C079  F07E         	movff	??_CANSetFilter,CANSetFilter@tamp
  3933  000C60  C07A  F07F         	movff	??_CANSetFilter+1,CANSetFilter@tamp+1
  3934  000C64  C07B  F080         	movff	??_CANSetFilter+2,CANSetFilter@tamp+2
  3935  000C68  C07C  F081         	movff	??_CANSetFilter+3,CANSetFilter@tamp+3
  3936                           
  3937                           ; BSR set to: 0
  3938                           ;inc\CANlib.h: 1075: tamp = tamp & 0x000000FF;
  3939  000C6C  0100               	movlb	0	; () banked
  3940  000C6E  517E               	movf	CANSetFilter@tamp& (0+255),w,b
  3941  000C70  0100               	movlb	0	; () banked
  3942  000C72  6F7E               	movwf	CANSetFilter@tamp& (0+255),b
  3943  000C74  6B7F               	clrf	(CANSetFilter@tamp+1)& (0+255),b
  3944  000C76  6B80               	clrf	(CANSetFilter@tamp+2)& (0+255),b
  3945  000C78  6B81               	clrf	(CANSetFilter@tamp+3)& (0+255),b
  3946                           
  3947                           ; BSR set to: 0
  3948                           ;inc\CANlib.h: 1076: RXF5SIDH = (unsigned char) tamp;
  3949  000C7A  C07E  FF14         	movff	CANSetFilter@tamp,3860	;volatile
  3950  000C7E  0012               	return	
  3951  000C80                     __end_of_CANSetFilter:
  3952                           	opt stack 0
  3953                           tblptru	equ	0xFF8
  3954                           tblptrh	equ	0xFF7
  3955                           tblptrl	equ	0xFF6
  3956                           tablat	equ	0xFF5
  3957                           intcon	equ	0xFF2
  3958                           intcon2	equ	0xFF1
  3959                           postinc0	equ	0xFEE
  3960                           wreg	equ	0xFE8
  3961                           status	equ	0xFD8
  3962                           
  3963 ;; *************** function _CANOperationMode *****************
  3964 ;; Defined at:
  3965 ;;		line 207 in file "../../LaurTec_PIC_libraries_v_3.3.0/inc\CANlib.h"
  3966 ;; Parameters:    Size  Location     Type
  3967 ;;  mode            1    wreg     enum E16309
  3968 ;; Auto vars:     Size  Location     Type
  3969 ;;  mode            1   20[BANK0 ] enum E16309
  3970 ;; Return value:  Size  Location     Type
  3971 ;;		None               void
  3972 ;; Registers used:
  3973 ;;		wreg, status,2, status,0
  3974 ;; Tracked objects:
  3975 ;;		On entry : 0/0
  3976 ;;		On exit  : 0/0
  3977 ;;		Unchanged: 0/0
  3978 ;; Data sizes:     COMRAM   BANK0   BANK1   BANK2   BANK3   BANK4   BANK5   BANK6   BANK7   BANK8   BANK9  BANK10  BANK1
      +1  BANK12
  3979 ;;      Params:         0       0       0       0       0       0       0       0       0       0       0       0       
      +0       0
  3980 ;;      Locals:         0       1       0       0       0       0       0       0       0       0       0       0       
      +0       0
  3981 ;;      Temps:          0       0       0       0       0       0       0       0       0       0       0       0       
      +0       0
  3982 ;;      Totals:         0       1       0       0       0       0       0       0       0       0       0       0       
      +0       0
  3983 ;;Total ram usage:        1 bytes
  3984 ;; Hardware stack levels used:    1
  3985 ;; Hardware stack levels required when called:    4
  3986 ;; This function calls:
  3987 ;;		Nothing
  3988 ;; This function is called by:
  3989 ;;		_CANInitialize
  3990 ;; This function uses a non-reentrant model
  3991 ;;
  3992                           
  3993                           	psect	text5
  3994  002166                     __ptext5:
  3995                           	opt stack 0
  3996  002166                     _CANOperationMode:
  3997                           	opt stack 24
  3998                           
  3999                           ; BSR set to: 0
  4000                           ;incstack = 0
  4001                           ;CANOperationMode@mode stored from wreg
  4002  002166  0100               	movlb	0	; () banked
  4003  002168  6F74               	movwf	CANOperationMode@mode& (0+255),b
  4004                           
  4005                           ;inc\CANlib.h: 209: CANCON = mode;
  4006  00216A  C074  FF6F         	movff	CANOperationMode@mode,3951	;volatile
  4007  00216E                     l2356:
  4008  00216E  506E               	movf	3950,w,c	;volatile
  4009  002170  0BE0               	andlw	224
  4010  002172  0100               	movlb	0	; () banked
  4011  002174  1974               	xorwf	CANOperationMode@mode& (0+255),w,b
  4012  002176  B4D8               	btfsc	status,2,c
  4013  002178  0012               	return	
  4014  00217A  D7F9               	goto	l2356
  4015  00217C                     __end_of_CANOperationMode:
  4016                           	opt stack 0
  4017                           tblptru	equ	0xFF8
  4018                           tblptrh	equ	0xFF7
  4019                           tblptrl	equ	0xFF6
  4020                           tablat	equ	0xFF5
  4021                           intcon	equ	0xFF2
  4022                           intcon2	equ	0xFF1
  4023                           postinc0	equ	0xFEE
  4024                           wreg	equ	0xFE8
  4025                           status	equ	0xFD8
  4026                           
  4027 ;; *************** function _CANsendMessage *****************
  4028 ;; Defined at:
  4029 ;;		line 295 in file "../../LaurTec_PIC_libraries_v_3.3.0/inc\CANlib.h"
  4030 ;; Parameters:    Size  Location     Type
  4031 ;;  identifier      4   20[BANK0 ] unsigned long 
  4032 ;;  data            2   24[BANK0 ] PTR unsigned char 
  4033 ;;		 -> data(8), 
  4034 ;;  dataLength      1   26[BANK0 ] unsigned char 
  4035 ;;  flags           1   27[BANK0 ] enum E16337
  4036 ;; Auto vars:     Size  Location     Type
  4037 ;;  tamp            4   32[BANK0 ] unsigned long 
  4038 ;; Return value:  Size  Location     Type
  4039 ;;		None               void
  4040 ;; Registers used:
  4041 ;;		wreg, fsr2l, fsr2h, status,2, status,0
  4042 ;; Tracked objects:
  4043 ;;		On entry : 0/0
  4044 ;;		On exit  : 0/0
  4045 ;;		Unchanged: 0/0
  4046 ;; Data sizes:     COMRAM   BANK0   BANK1   BANK2   BANK3   BANK4   BANK5   BANK6   BANK7   BANK8   BANK9  BANK10  BANK1
      +1  BANK12
  4047 ;;      Params:         0       8       0       0       0       0       0       0       0       0       0       0       
      +0       0
  4048 ;;      Locals:         0       4       0       0       0       0       0       0       0       0       0       0       
      +0       0
  4049 ;;      Temps:          0       4       0       0       0       0       0       0       0       0       0       0       
      +0       0
  4050 ;;      Totals:         0      16       0       0       0       0       0       0       0       0       0       0       
      +0       0
  4051 ;;Total ram usage:       16 bytes
  4052 ;; Hardware stack levels used:    1
  4053 ;; Hardware stack levels required when called:    4
  4054 ;; This function calls:
  4055 ;;		Nothing
  4056 ;; This function is called by:
  4057 ;;		_main
  4058 ;; This function uses a non-reentrant model
  4059 ;;
  4060                           
  4061                           	psect	text6
  4062  000C80                     __ptext6:
  4063                           	opt stack 0
  4064  000C80                     _CANsendMessage:
  4065                           	opt stack 26
  4066                           
  4067                           ;inc\CANlib.h: 297: unsigned long tamp;
  4068                           ;inc\CANlib.h: 299: if (TXB0CONbits.TXREQ == 0)
  4069                           
  4070                           ; BSR set to: 0
  4071                           ;incstack = 0
  4072  000C80  010F               	movlb	15	; () banked
  4073  000C82  B740               	btfsc	64,3,b	;volatile
  4074  000C84  D13F               	goto	l339
  4075                           
  4076                           ; BSR set to: 15
  4077                           ;inc\CANlib.h: 300: { TXB0DLC = dataLength;
  4078  000C86  C07A  FF45         	movff	CANsendMessage@dataLength,3909	;volatile
  4079                           
  4080                           ;inc\CANlib.h: 301: if (0b01000000 & flags)
  4081  000C8A  0100               	movlb	0	; () banked
  4082  000C8C  AD7B               	btfss	CANsendMessage@flags& (0+255),6,b
  4083  000C8E  D003               	goto	l340
  4084                           
  4085                           ; BSR set to: 0
  4086                           ;inc\CANlib.h: 302: TXB0DLCbits.TXRTR = 0x01;
  4087  000C90  010F               	movlb	15	; () banked
  4088  000C92  8D45               	bsf	69,6,b	;volatile
  4089  000C94  D002               	goto	l341
  4090  000C96                     l340:
  4091                           
  4092                           ; BSR set to: 0
  4093                           ;inc\CANlib.h: 303: else
  4094                           ;inc\CANlib.h: 304: TXB0DLCbits.TXRTR = 0x00;
  4095  000C96  010F               	movlb	15	; () banked
  4096  000C98  9D45               	bcf	69,6,b	;volatile
  4097  000C9A                     l341:
  4098                           
  4099                           ; BSR set to: 15
  4100                           ;inc\CANlib.h: 306: if (CAN_TX_FRAME_MASK & flags)
  4101  000C9A  0100               	movlb	0	; () banked
  4102  000C9C  A77B               	btfss	CANsendMessage@flags& (0+255),3,b
  4103  000C9E  D079               	goto	l342
  4104                           
  4105                           ; BSR set to: 0
  4106                           ;inc\CANlib.h: 307: {
  4107                           ;inc\CANlib.h: 309: tamp = identifier & 0x000000FF;
  4108  000CA0  0100               	movlb	0	; () banked
  4109  000CA2  5174               	movf	CANsendMessage@identifier& (0+255),w,b
  4110  000CA4  0100               	movlb	0	; () banked
  4111  000CA6  6F80               	movwf	CANsendMessage@tamp& (0+255),b
  4112  000CA8  6B81               	clrf	(CANsendMessage@tamp+1)& (0+255),b
  4113  000CAA  6B82               	clrf	(CANsendMessage@tamp+2)& (0+255),b
  4114  000CAC  6B83               	clrf	(CANsendMessage@tamp+3)& (0+255),b
  4115                           
  4116                           ; BSR set to: 0
  4117                           ;inc\CANlib.h: 310: TXB0EIDL = (unsigned char) tamp;
  4118  000CAE  C080  FF44         	movff	CANsendMessage@tamp,3908	;volatile
  4119                           
  4120                           ; BSR set to: 0
  4121                           ;inc\CANlib.h: 312: tamp = identifier & 0x0000FF00;
  4122  000CB2  0E00               	movlw	0
  4123  000CB4  0100               	movlb	0	; () banked
  4124  000CB6  1574               	andwf	CANsendMessage@identifier& (0+255),w,b
  4125  000CB8  0100               	movlb	0	; () banked
  4126  000CBA  6F80               	movwf	CANsendMessage@tamp& (0+255),b
  4127  000CBC  0EFF               	movlw	255
  4128  000CBE  0100               	movlb	0	; () banked
  4129  000CC0  1575               	andwf	(CANsendMessage@identifier+1)& (0+255),w,b
  4130  000CC2  0100               	movlb	0	; () banked
  4131  000CC4  6F81               	movwf	(CANsendMessage@tamp+1)& (0+255),b
  4132  000CC6  0E00               	movlw	0
  4133  000CC8  0100               	movlb	0	; () banked
  4134  000CCA  1576               	andwf	(CANsendMessage@identifier+2)& (0+255),w,b
  4135  000CCC  0100               	movlb	0	; () banked
  4136  000CCE  6F82               	movwf	(CANsendMessage@tamp+2)& (0+255),b
  4137  000CD0  0E00               	movlw	0
  4138  000CD2  0100               	movlb	0	; () banked
  4139  000CD4  1577               	andwf	(CANsendMessage@identifier+3)& (0+255),w,b
  4140  000CD6  0100               	movlb	0	; () banked
  4141  000CD8  6F83               	movwf	(CANsendMessage@tamp+3)& (0+255),b
  4142                           
  4143                           ; BSR set to: 0
  4144                           ;inc\CANlib.h: 313: tamp = tamp >> 8;
  4145  000CDA  C080  F07C         	movff	CANsendMessage@tamp,??_CANsendMessage
  4146  000CDE  C081  F07D         	movff	CANsendMessage@tamp+1,??_CANsendMessage+1
  4147  000CE2  C082  F07E         	movff	CANsendMessage@tamp+2,??_CANsendMessage+2
  4148  000CE6  C083  F07F         	movff	CANsendMessage@tamp+3,??_CANsendMessage+3
  4149  000CEA  C07D  F07C         	movff	??_CANsendMessage+1,??_CANsendMessage
  4150  000CEE  C07E  F07D         	movff	??_CANsendMessage+2,??_CANsendMessage+1
  4151  000CF2  C07F  F07E         	movff	??_CANsendMessage+3,??_CANsendMessage+2
  4152  000CF6  0100               	movlb	0	; () banked
  4153  000CF8  6B7F               	clrf	(??_CANsendMessage+3)& (0+255),b
  4154  000CFA  C07C  F080         	movff	??_CANsendMessage,CANsendMessage@tamp
  4155  000CFE  C07D  F081         	movff	??_CANsendMessage+1,CANsendMessage@tamp+1
  4156  000D02  C07E  F082         	movff	??_CANsendMessage+2,CANsendMessage@tamp+2
  4157  000D06  C07F  F083         	movff	??_CANsendMessage+3,CANsendMessage@tamp+3
  4158                           
  4159                           ; BSR set to: 0
  4160                           ;inc\CANlib.h: 314: TXB0EIDH = (unsigned char) tamp;
  4161  000D0A  C080  FF43         	movff	CANsendMessage@tamp,3907	;volatile
  4162                           
  4163                           ; BSR set to: 0
  4164                           ;inc\CANlib.h: 316: TXB0SIDL = 0x00;
  4165  000D0E  0E00               	movlw	0
  4166  000D10  010F               	movlb	15	; () banked
  4167  000D12  6F42               	movwf	66,b	;volatile
  4168                           
  4169                           ; BSR set to: 15
  4170                           ;inc\CANlib.h: 317: TXB0SIDLbits.EXIDE = 0x01;
  4171  000D14  010F               	movlb	15	; () banked
  4172  000D16  8742               	bsf	66,3,b	;volatile
  4173                           
  4174                           ; BSR set to: 15
  4175                           ;inc\CANlib.h: 319: if (identifier & 0x00010000)
  4176  000D18  0100               	movlb	0	; () banked
  4177  000D1A  A176               	btfss	(CANsendMessage@identifier+2)& (0+255),0,b
  4178  000D1C  D002               	goto	l343
  4179                           
  4180                           ; BSR set to: 0
  4181                           ;inc\CANlib.h: 320: TXB0SIDLbits.EID16 = 0x01;
  4182  000D1E  010F               	movlb	15	; () banked
  4183  000D20  8142               	bsf	66,0,b	;volatile
  4184  000D22                     l343:
  4185                           
  4186                           ;inc\CANlib.h: 321: if (identifier & 0x00020000)
  4187  000D22  0100               	movlb	0	; () banked
  4188  000D24  A376               	btfss	(CANsendMessage@identifier+2)& (0+255),1,b
  4189  000D26  D002               	goto	l344
  4190                           
  4191                           ; BSR set to: 0
  4192                           ;inc\CANlib.h: 322: TXB0SIDLbits.EID17 = 0x01;
  4193  000D28  010F               	movlb	15	; () banked
  4194  000D2A  8342               	bsf	66,1,b	;volatile
  4195  000D2C                     l344:
  4196                           
  4197                           ;inc\CANlib.h: 323: if (identifier & 0x00040000)
  4198  000D2C  0100               	movlb	0	; () banked
  4199  000D2E  A576               	btfss	(CANsendMessage@identifier+2)& (0+255),2,b
  4200  000D30  D002               	goto	l345
  4201                           
  4202                           ; BSR set to: 0
  4203                           ;inc\CANlib.h: 324: TXB0SIDLbits.SID0 = 0x01;
  4204  000D32  010F               	movlb	15	; () banked
  4205  000D34  8B42               	bsf	66,5,b	;volatile
  4206  000D36                     l345:
  4207                           
  4208                           ;inc\CANlib.h: 325: if (identifier & 0x00080000)
  4209  000D36  0100               	movlb	0	; () banked
  4210  000D38  A776               	btfss	(CANsendMessage@identifier+2)& (0+255),3,b
  4211  000D3A  D002               	goto	l346
  4212                           
  4213                           ; BSR set to: 0
  4214                           ;inc\CANlib.h: 326: TXB0SIDLbits.SID1 = 0x01;
  4215  000D3C  010F               	movlb	15	; () banked
  4216  000D3E  8D42               	bsf	66,6,b	;volatile
  4217  000D40                     l346:
  4218                           
  4219                           ;inc\CANlib.h: 327: if (identifier & 0x00100000)
  4220  000D40  0100               	movlb	0	; () banked
  4221  000D42  A976               	btfss	(CANsendMessage@identifier+2)& (0+255),4,b
  4222  000D44  D002               	goto	l2850
  4223                           
  4224                           ; BSR set to: 0
  4225                           ;inc\CANlib.h: 328: TXB0SIDLbits.SID2 = 0x01;
  4226  000D46  010F               	movlb	15	; () banked
  4227  000D48  8F42               	bsf	66,7,b	;volatile
  4228  000D4A                     l2850:
  4229                           
  4230                           ;inc\CANlib.h: 330: tamp = (identifier >> 21);
  4231  000D4A  C074  F07C         	movff	CANsendMessage@identifier,??_CANsendMessage
  4232  000D4E  C075  F07D         	movff	CANsendMessage@identifier+1,??_CANsendMessage+1
  4233  000D52  C076  F07E         	movff	CANsendMessage@identifier+2,??_CANsendMessage+2
  4234  000D56  C077  F07F         	movff	CANsendMessage@identifier+3,??_CANsendMessage+3
  4235  000D5A  0E16               	movlw	22
  4236  000D5C  D006               	goto	u3000
  4237  000D5E                     u3005:
  4238  000D5E  0100               	movlb	0	; () banked
  4239  000D60  90D8               	bcf	status,0,c
  4240  000D62  337F               	rrcf	(??_CANsendMessage+3)& (0+255),f,b
  4241  000D64  337E               	rrcf	(??_CANsendMessage+2)& (0+255),f,b
  4242  000D66  337D               	rrcf	(??_CANsendMessage+1)& (0+255),f,b
  4243  000D68  337C               	rrcf	??_CANsendMessage& (0+255),f,b
  4244  000D6A                     u3000:
  4245  000D6A  2EE8               	decfsz	wreg,f,c
  4246  000D6C  D7F8               	goto	u3005
  4247  000D6E  C07C  F080         	movff	??_CANsendMessage,CANsendMessage@tamp
  4248  000D72  C07D  F081         	movff	??_CANsendMessage+1,CANsendMessage@tamp+1
  4249  000D76  C07E  F082         	movff	??_CANsendMessage+2,CANsendMessage@tamp+2
  4250  000D7A  C07F  F083         	movff	??_CANsendMessage+3,CANsendMessage@tamp+3
  4251                           
  4252                           ; BSR set to: 0
  4253                           ;inc\CANlib.h: 331: tamp = tamp & 0x000000FF;
  4254  000D7E  0100               	movlb	0	; () banked
  4255  000D80  5180               	movf	CANsendMessage@tamp& (0+255),w,b
  4256  000D82  0100               	movlb	0	; () banked
  4257  000D84  6F80               	movwf	CANsendMessage@tamp& (0+255),b
  4258  000D86  6B81               	clrf	(CANsendMessage@tamp+1)& (0+255),b
  4259  000D88  6B82               	clrf	(CANsendMessage@tamp+2)& (0+255),b
  4260  000D8A  6B83               	clrf	(CANsendMessage@tamp+3)& (0+255),b
  4261                           
  4262                           ; BSR set to: 0
  4263                           ;inc\CANlib.h: 332: TXB0SIDH = (unsigned char) tamp;
  4264  000D8C  C080  FF41         	movff	CANsendMessage@tamp,3905	;volatile
  4265                           
  4266                           ;inc\CANlib.h: 333: }
  4267  000D90  D059               	goto	l2870
  4268  000D92                     l342:
  4269                           
  4270                           ; BSR set to: 0
  4271                           ;inc\CANlib.h: 335: else
  4272                           ;inc\CANlib.h: 337: {
  4273                           ;inc\CANlib.h: 338: TXB0SIDLbits.EXIDE = 0x00;
  4274  000D92  010F               	movlb	15	; () banked
  4275  000D94  9742               	bcf	66,3,b	;volatile
  4276                           
  4277                           ; BSR set to: 15
  4278                           ;inc\CANlib.h: 340: tamp = (identifier >> 3);
  4279  000D96  C074  F07C         	movff	CANsendMessage@identifier,??_CANsendMessage
  4280  000D9A  C075  F07D         	movff	CANsendMessage@identifier+1,??_CANsendMessage+1
  4281  000D9E  C076  F07E         	movff	CANsendMessage@identifier+2,??_CANsendMessage+2
  4282  000DA2  C077  F07F         	movff	CANsendMessage@identifier+3,??_CANsendMessage+3
  4283  000DA6  0E04               	movlw	4
  4284  000DA8  D006               	goto	u3010
  4285  000DAA                     u3015:
  4286  000DAA  0100               	movlb	0	; () banked
  4287  000DAC  90D8               	bcf	status,0,c
  4288  000DAE  337F               	rrcf	(??_CANsendMessage+3)& (0+255),f,b
  4289  000DB0  337E               	rrcf	(??_CANsendMessage+2)& (0+255),f,b
  4290  000DB2  337D               	rrcf	(??_CANsendMessage+1)& (0+255),f,b
  4291  000DB4  337C               	rrcf	??_CANsendMessage& (0+255),f,b
  4292  000DB6                     u3010:
  4293  000DB6  2EE8               	decfsz	wreg,f,c
  4294  000DB8  D7F8               	goto	u3015
  4295  000DBA  C07C  F080         	movff	??_CANsendMessage,CANsendMessage@tamp
  4296  000DBE  C07D  F081         	movff	??_CANsendMessage+1,CANsendMessage@tamp+1
  4297  000DC2  C07E  F082         	movff	??_CANsendMessage+2,CANsendMessage@tamp+2
  4298  000DC6  C07F  F083         	movff	??_CANsendMessage+3,CANsendMessage@tamp+3
  4299                           
  4300                           ; BSR set to: 0
  4301                           ;inc\CANlib.h: 341: tamp = tamp & 0x000000FF;
  4302  000DCA  0100               	movlb	0	; () banked
  4303  000DCC  5180               	movf	CANsendMessage@tamp& (0+255),w,b
  4304  000DCE  0100               	movlb	0	; () banked
  4305  000DD0  6F80               	movwf	CANsendMessage@tamp& (0+255),b
  4306  000DD2  6B81               	clrf	(CANsendMessage@tamp+1)& (0+255),b
  4307  000DD4  6B82               	clrf	(CANsendMessage@tamp+2)& (0+255),b
  4308  000DD6  6B83               	clrf	(CANsendMessage@tamp+3)& (0+255),b
  4309                           
  4310                           ; BSR set to: 0
  4311                           ;inc\CANlib.h: 342: TXB0SIDH = (unsigned char) tamp;
  4312  000DD8  C080  FF41         	movff	CANsendMessage@tamp,3905	;volatile
  4313                           
  4314                           ; BSR set to: 0
  4315                           ;inc\CANlib.h: 344: tamp = identifier & 0x00000007;
  4316  000DDC  0E07               	movlw	7
  4317  000DDE  0100               	movlb	0	; () banked
  4318  000DE0  1574               	andwf	CANsendMessage@identifier& (0+255),w,b
  4319  000DE2  0100               	movlb	0	; () banked
  4320  000DE4  6F80               	movwf	CANsendMessage@tamp& (0+255),b
  4321  000DE6  0E00               	movlw	0
  4322  000DE8  0100               	movlb	0	; () banked
  4323  000DEA  1575               	andwf	(CANsendMessage@identifier+1)& (0+255),w,b
  4324  000DEC  0100               	movlb	0	; () banked
  4325  000DEE  6F81               	movwf	(CANsendMessage@tamp+1)& (0+255),b
  4326  000DF0  0E00               	movlw	0
  4327  000DF2  0100               	movlb	0	; () banked
  4328  000DF4  1576               	andwf	(CANsendMessage@identifier+2)& (0+255),w,b
  4329  000DF6  0100               	movlb	0	; () banked
  4330  000DF8  6F82               	movwf	(CANsendMessage@tamp+2)& (0+255),b
  4331  000DFA  0E00               	movlw	0
  4332  000DFC  0100               	movlb	0	; () banked
  4333  000DFE  1577               	andwf	(CANsendMessage@identifier+3)& (0+255),w,b
  4334  000E00  0100               	movlb	0	; () banked
  4335  000E02  6F83               	movwf	(CANsendMessage@tamp+3)& (0+255),b
  4336                           
  4337                           ; BSR set to: 0
  4338                           ;inc\CANlib.h: 345: tamp = tamp << 5;
  4339  000E04  C080  F07C         	movff	CANsendMessage@tamp,??_CANsendMessage
  4340  000E08  C081  F07D         	movff	CANsendMessage@tamp+1,??_CANsendMessage+1
  4341  000E0C  C082  F07E         	movff	CANsendMessage@tamp+2,??_CANsendMessage+2
  4342  000E10  C083  F07F         	movff	CANsendMessage@tamp+3,??_CANsendMessage+3
  4343  000E14  0E05               	movlw	5
  4344  000E16                     u3025:
  4345  000E16  90D8               	bcf	status,0,c
  4346  000E18  0100               	movlb	0	; () banked
  4347  000E1A  377C               	rlcf	??_CANsendMessage& (0+255),f,b
  4348  000E1C  377D               	rlcf	(??_CANsendMessage+1)& (0+255),f,b
  4349  000E1E  377E               	rlcf	(??_CANsendMessage+2)& (0+255),f,b
  4350  000E20  377F               	rlcf	(??_CANsendMessage+3)& (0+255),f,b
  4351  000E22  2EE8               	decfsz	wreg,f,c
  4352  000E24  D7F8               	goto	u3025
  4353  000E26  C07C  F080         	movff	??_CANsendMessage,CANsendMessage@tamp
  4354  000E2A  C07D  F081         	movff	??_CANsendMessage+1,CANsendMessage@tamp+1
  4355  000E2E  C07E  F082         	movff	??_CANsendMessage+2,CANsendMessage@tamp+2
  4356  000E32  C07F  F083         	movff	??_CANsendMessage+3,CANsendMessage@tamp+3
  4357                           
  4358                           ; BSR set to: 0
  4359                           ;inc\CANlib.h: 346: TXB0SIDL = TXB0SIDL & 0b00011111;
  4360  000E36  010F               	movlb	15	; () banked
  4361  000E38  5142               	movf	66,w,b	;volatile
  4362  000E3A  0B1F               	andlw	31
  4363  000E3C  010F               	movlb	15	; () banked
  4364  000E3E  6F42               	movwf	66,b	;volatile
  4365                           
  4366                           ; BSR set to: 15
  4367                           ;inc\CANlib.h: 347: TXB0SIDL = (unsigned char) tamp;
  4368  000E40  C080  FF42         	movff	CANsendMessage@tamp,3906	;volatile
  4369  000E44                     l2870:
  4370                           
  4371                           ;inc\CANlib.h: 348: }
  4372                           ;inc\CANlib.h: 350: if (0b00000001 & flags)
  4373  000E44  0100               	movlb	0	; () banked
  4374  000E46  A17B               	btfss	CANsendMessage@flags& (0+255),0,b
  4375  000E48  D003               	goto	l349
  4376                           
  4377                           ; BSR set to: 0
  4378                           ;inc\CANlib.h: 351: TXB0CONbits.TXPRI0 = 0x01;
  4379  000E4A  010F               	movlb	15	; () banked
  4380  000E4C  8140               	bsf	64,0,b	;volatile
  4381  000E4E  D002               	goto	l350
  4382  000E50                     l349:
  4383                           
  4384                           ; BSR set to: 0
  4385                           ;inc\CANlib.h: 352: else
  4386                           ;inc\CANlib.h: 353: TXB0CONbits.TXPRI0 = 0x00;
  4387  000E50  010F               	movlb	15	; () banked
  4388  000E52  9140               	bcf	64,0,b	;volatile
  4389  000E54                     l350:
  4390                           
  4391                           ; BSR set to: 15
  4392                           ;inc\CANlib.h: 354: if (0b00000010 & flags)
  4393  000E54  0100               	movlb	0	; () banked
  4394  000E56  A37B               	btfss	CANsendMessage@flags& (0+255),1,b
  4395  000E58  D003               	goto	l351
  4396                           
  4397                           ; BSR set to: 0
  4398                           ;inc\CANlib.h: 355: TXB0CONbits.TXPRI1 = 0x01;
  4399  000E5A  010F               	movlb	15	; () banked
  4400  000E5C  8340               	bsf	64,1,b	;volatile
  4401  000E5E  D002               	goto	l2876
  4402  000E60                     l351:
  4403                           
  4404                           ; BSR set to: 0
  4405                           ;inc\CANlib.h: 356: else
  4406                           ;inc\CANlib.h: 357: TXB0CONbits.TXPRI1 = 0x00;
  4407  000E60  010F               	movlb	15	; () banked
  4408  000E62  9340               	bcf	64,1,b	;volatile
  4409  000E64                     l2876:
  4410                           
  4411                           ; BSR set to: 15
  4412                           ;inc\CANlib.h: 359: TXB0D0 = data[0];
  4413  000E64  C078  FFD9         	movff	CANsendMessage@data,fsr2l
  4414  000E68  C079  FFDA         	movff	CANsendMessage@data+1,fsr2h
  4415  000E6C  50DF               	movf	indf2,w,c
  4416  000E6E  010F               	movlb	15	; () banked
  4417  000E70  6F46               	movwf	70,b	;volatile
  4418                           
  4419                           ; BSR set to: 15
  4420                           ;inc\CANlib.h: 360: TXB0D1 = data[1];
  4421  000E72  0100               	movlb	0	; () banked
  4422  000E74  EE20 F001          	lfsr	2,1
  4423  000E78  5178               	movf	CANsendMessage@data& (0+255),w,b
  4424  000E7A  26D9               	addwf	fsr2l,f,c
  4425  000E7C  5179               	movf	(CANsendMessage@data+1)& (0+255),w,b
  4426  000E7E  22DA               	addwfc	fsr2h,f,c
  4427  000E80  50DF               	movf	indf2,w,c
  4428  000E82  010F               	movlb	15	; () banked
  4429  000E84  6F47               	movwf	71,b	;volatile
  4430                           
  4431                           ; BSR set to: 15
  4432                           ;inc\CANlib.h: 361: TXB0D2 = data[2];
  4433  000E86  0100               	movlb	0	; () banked
  4434  000E88  EE20 F002          	lfsr	2,2
  4435  000E8C  5178               	movf	CANsendMessage@data& (0+255),w,b
  4436  000E8E  26D9               	addwf	fsr2l,f,c
  4437  000E90  5179               	movf	(CANsendMessage@data+1)& (0+255),w,b
  4438  000E92  22DA               	addwfc	fsr2h,f,c
  4439  000E94  50DF               	movf	indf2,w,c
  4440  000E96  010F               	movlb	15	; () banked
  4441  000E98  6F48               	movwf	72,b	;volatile
  4442                           
  4443                           ; BSR set to: 15
  4444                           ;inc\CANlib.h: 362: TXB0D3 = data[3];
  4445  000E9A  0100               	movlb	0	; () banked
  4446  000E9C  EE20 F003          	lfsr	2,3
  4447  000EA0  5178               	movf	CANsendMessage@data& (0+255),w,b
  4448  000EA2  26D9               	addwf	fsr2l,f,c
  4449  000EA4  5179               	movf	(CANsendMessage@data+1)& (0+255),w,b
  4450  000EA6  22DA               	addwfc	fsr2h,f,c
  4451  000EA8  50DF               	movf	indf2,w,c
  4452  000EAA  010F               	movlb	15	; () banked
  4453  000EAC  6F49               	movwf	73,b	;volatile
  4454                           
  4455                           ; BSR set to: 15
  4456                           ;inc\CANlib.h: 363: TXB0D4 = data[4];
  4457  000EAE  0100               	movlb	0	; () banked
  4458  000EB0  EE20 F004          	lfsr	2,4
  4459  000EB4  5178               	movf	CANsendMessage@data& (0+255),w,b
  4460  000EB6  26D9               	addwf	fsr2l,f,c
  4461  000EB8  5179               	movf	(CANsendMessage@data+1)& (0+255),w,b
  4462  000EBA  22DA               	addwfc	fsr2h,f,c
  4463  000EBC  50DF               	movf	indf2,w,c
  4464  000EBE  010F               	movlb	15	; () banked
  4465  000EC0  6F4A               	movwf	74,b	;volatile
  4466                           
  4467                           ; BSR set to: 15
  4468                           ;inc\CANlib.h: 364: TXB0D5 = data[5];
  4469  000EC2  0100               	movlb	0	; () banked
  4470  000EC4  EE20 F005          	lfsr	2,5
  4471  000EC8  5178               	movf	CANsendMessage@data& (0+255),w,b
  4472  000ECA  26D9               	addwf	fsr2l,f,c
  4473  000ECC  5179               	movf	(CANsendMessage@data+1)& (0+255),w,b
  4474  000ECE  22DA               	addwfc	fsr2h,f,c
  4475  000ED0  50DF               	movf	indf2,w,c
  4476  000ED2  010F               	movlb	15	; () banked
  4477  000ED4  6F4B               	movwf	75,b	;volatile
  4478                           
  4479                           ; BSR set to: 15
  4480                           ;inc\CANlib.h: 365: TXB0D6 = data[6];
  4481  000ED6  0100               	movlb	0	; () banked
  4482  000ED8  EE20 F006          	lfsr	2,6
  4483  000EDC  5178               	movf	CANsendMessage@data& (0+255),w,b
  4484  000EDE  26D9               	addwf	fsr2l,f,c
  4485  000EE0  5179               	movf	(CANsendMessage@data+1)& (0+255),w,b
  4486  000EE2  22DA               	addwfc	fsr2h,f,c
  4487  000EE4  50DF               	movf	indf2,w,c
  4488  000EE6  010F               	movlb	15	; () banked
  4489  000EE8  6F4C               	movwf	76,b	;volatile
  4490                           
  4491                           ; BSR set to: 15
  4492                           ;inc\CANlib.h: 366: TXB0D7 = data[7];
  4493  000EEA  0100               	movlb	0	; () banked
  4494  000EEC  EE20 F007          	lfsr	2,7
  4495  000EF0  5178               	movf	CANsendMessage@data& (0+255),w,b
  4496  000EF2  26D9               	addwf	fsr2l,f,c
  4497  000EF4  5179               	movf	(CANsendMessage@data+1)& (0+255),w,b
  4498  000EF6  22DA               	addwfc	fsr2h,f,c
  4499  000EF8  50DF               	movf	indf2,w,c
  4500  000EFA  010F               	movlb	15	; () banked
  4501  000EFC  6F4D               	movwf	77,b	;volatile
  4502                           
  4503                           ; BSR set to: 15
  4504                           ;inc\CANlib.h: 368: TXB0CONbits.TXREQ = 0x01;
  4505  000EFE  010F               	movlb	15	; () banked
  4506  000F00  8740               	bsf	64,3,b	;volatile
  4507                           
  4508                           ; BSR set to: 15
  4509                           ;inc\CANlib.h: 369: return;
  4510  000F02  0012               	return	
  4511  000F04                     l339:
  4512                           
  4513                           ; BSR set to: 15
  4514                           ;inc\CANlib.h: 370: }
  4515                           ;inc\CANlib.h: 374: if (TXB1CONbits.TXREQ == 0)
  4516  000F04  010F               	movlb	15	; () banked
  4517  000F06  B730               	btfsc	48,3,b	;volatile
  4518  000F08  D13F               	goto	l354
  4519                           
  4520                           ; BSR set to: 15
  4521                           ;inc\CANlib.h: 375: { TXB1DLC = dataLength;
  4522  000F0A  C07A  FF35         	movff	CANsendMessage@dataLength,3893	;volatile
  4523                           
  4524                           ;inc\CANlib.h: 377: if (0b01000000 & flags)
  4525  000F0E  0100               	movlb	0	; () banked
  4526  000F10  AD7B               	btfss	CANsendMessage@flags& (0+255),6,b
  4527  000F12  D003               	goto	l355
  4528                           
  4529                           ; BSR set to: 0
  4530                           ;inc\CANlib.h: 378: TXB1DLCbits.TXRTR = 0x01;
  4531  000F14  010F               	movlb	15	; () banked
  4532  000F16  8D35               	bsf	53,6,b	;volatile
  4533  000F18  D002               	goto	l356
  4534  000F1A                     l355:
  4535                           
  4536                           ; BSR set to: 0
  4537                           ;inc\CANlib.h: 379: else
  4538                           ;inc\CANlib.h: 380: TXB1DLCbits.TXRTR = 0x00;
  4539  000F1A  010F               	movlb	15	; () banked
  4540  000F1C  9D35               	bcf	53,6,b	;volatile
  4541  000F1E                     l356:
  4542                           
  4543                           ; BSR set to: 15
  4544                           ;inc\CANlib.h: 382: if (CAN_TX_FRAME_MASK & flags)
  4545  000F1E  0100               	movlb	0	; () banked
  4546  000F20  A77B               	btfss	CANsendMessage@flags& (0+255),3,b
  4547  000F22  D079               	goto	l357
  4548                           
  4549                           ; BSR set to: 0
  4550                           ;inc\CANlib.h: 383: {
  4551                           ;inc\CANlib.h: 384: tamp = identifier & 0x000000FF;
  4552  000F24  0100               	movlb	0	; () banked
  4553  000F26  5174               	movf	CANsendMessage@identifier& (0+255),w,b
  4554  000F28  0100               	movlb	0	; () banked
  4555  000F2A  6F80               	movwf	CANsendMessage@tamp& (0+255),b
  4556  000F2C  6B81               	clrf	(CANsendMessage@tamp+1)& (0+255),b
  4557  000F2E  6B82               	clrf	(CANsendMessage@tamp+2)& (0+255),b
  4558  000F30  6B83               	clrf	(CANsendMessage@tamp+3)& (0+255),b
  4559                           
  4560                           ; BSR set to: 0
  4561                           ;inc\CANlib.h: 385: TXB1EIDL = (unsigned char) tamp;
  4562  000F32  C080  FF34         	movff	CANsendMessage@tamp,3892	;volatile
  4563                           
  4564                           ; BSR set to: 0
  4565                           ;inc\CANlib.h: 387: tamp = identifier & 0x0000FF00;
  4566  000F36  0E00               	movlw	0
  4567  000F38  0100               	movlb	0	; () banked
  4568  000F3A  1574               	andwf	CANsendMessage@identifier& (0+255),w,b
  4569  000F3C  0100               	movlb	0	; () banked
  4570  000F3E  6F80               	movwf	CANsendMessage@tamp& (0+255),b
  4571  000F40  0EFF               	movlw	255
  4572  000F42  0100               	movlb	0	; () banked
  4573  000F44  1575               	andwf	(CANsendMessage@identifier+1)& (0+255),w,b
  4574  000F46  0100               	movlb	0	; () banked
  4575  000F48  6F81               	movwf	(CANsendMessage@tamp+1)& (0+255),b
  4576  000F4A  0E00               	movlw	0
  4577  000F4C  0100               	movlb	0	; () banked
  4578  000F4E  1576               	andwf	(CANsendMessage@identifier+2)& (0+255),w,b
  4579  000F50  0100               	movlb	0	; () banked
  4580  000F52  6F82               	movwf	(CANsendMessage@tamp+2)& (0+255),b
  4581  000F54  0E00               	movlw	0
  4582  000F56  0100               	movlb	0	; () banked
  4583  000F58  1577               	andwf	(CANsendMessage@identifier+3)& (0+255),w,b
  4584  000F5A  0100               	movlb	0	; () banked
  4585  000F5C  6F83               	movwf	(CANsendMessage@tamp+3)& (0+255),b
  4586                           
  4587                           ; BSR set to: 0
  4588                           ;inc\CANlib.h: 388: tamp = tamp >> 8;
  4589  000F5E  C080  F07C         	movff	CANsendMessage@tamp,??_CANsendMessage
  4590  000F62  C081  F07D         	movff	CANsendMessage@tamp+1,??_CANsendMessage+1
  4591  000F66  C082  F07E         	movff	CANsendMessage@tamp+2,??_CANsendMessage+2
  4592  000F6A  C083  F07F         	movff	CANsendMessage@tamp+3,??_CANsendMessage+3
  4593  000F6E  C07D  F07C         	movff	??_CANsendMessage+1,??_CANsendMessage
  4594  000F72  C07E  F07D         	movff	??_CANsendMessage+2,??_CANsendMessage+1
  4595  000F76  C07F  F07E         	movff	??_CANsendMessage+3,??_CANsendMessage+2
  4596  000F7A  0100               	movlb	0	; () banked
  4597  000F7C  6B7F               	clrf	(??_CANsendMessage+3)& (0+255),b
  4598  000F7E  C07C  F080         	movff	??_CANsendMessage,CANsendMessage@tamp
  4599  000F82  C07D  F081         	movff	??_CANsendMessage+1,CANsendMessage@tamp+1
  4600  000F86  C07E  F082         	movff	??_CANsendMessage+2,CANsendMessage@tamp+2
  4601  000F8A  C07F  F083         	movff	??_CANsendMessage+3,CANsendMessage@tamp+3
  4602                           
  4603                           ; BSR set to: 0
  4604                           ;inc\CANlib.h: 389: TXB1EIDH = (unsigned char) tamp;
  4605  000F8E  C080  FF33         	movff	CANsendMessage@tamp,3891	;volatile
  4606                           
  4607                           ; BSR set to: 0
  4608                           ;inc\CANlib.h: 391: TXB1SIDL = 0x00;
  4609  000F92  0E00               	movlw	0
  4610  000F94  010F               	movlb	15	; () banked
  4611  000F96  6F32               	movwf	50,b	;volatile
  4612                           
  4613                           ; BSR set to: 15
  4614                           ;inc\CANlib.h: 392: TXB1SIDLbits.EXIDE = 0x01;
  4615  000F98  010F               	movlb	15	; () banked
  4616  000F9A  8732               	bsf	50,3,b	;volatile
  4617                           
  4618                           ; BSR set to: 15
  4619                           ;inc\CANlib.h: 394: if (identifier & 0x00010000)
  4620  000F9C  0100               	movlb	0	; () banked
  4621  000F9E  A176               	btfss	(CANsendMessage@identifier+2)& (0+255),0,b
  4622  000FA0  D002               	goto	l358
  4623                           
  4624                           ; BSR set to: 0
  4625                           ;inc\CANlib.h: 395: TXB1SIDLbits.EID16 = 0x01;
  4626  000FA2  010F               	movlb	15	; () banked
  4627  000FA4  8132               	bsf	50,0,b	;volatile
  4628  000FA6                     l358:
  4629                           
  4630                           ;inc\CANlib.h: 396: if (identifier & 0x00020000)
  4631  000FA6  0100               	movlb	0	; () banked
  4632  000FA8  A376               	btfss	(CANsendMessage@identifier+2)& (0+255),1,b
  4633  000FAA  D002               	goto	l359
  4634                           
  4635                           ; BSR set to: 0
  4636                           ;inc\CANlib.h: 397: TXB1SIDLbits.EID17 = 0x01;
  4637  000FAC  010F               	movlb	15	; () banked
  4638  000FAE  8332               	bsf	50,1,b	;volatile
  4639  000FB0                     l359:
  4640                           
  4641                           ;inc\CANlib.h: 398: if (identifier & 0x00040000)
  4642  000FB0  0100               	movlb	0	; () banked
  4643  000FB2  A576               	btfss	(CANsendMessage@identifier+2)& (0+255),2,b
  4644  000FB4  D002               	goto	l360
  4645                           
  4646                           ; BSR set to: 0
  4647                           ;inc\CANlib.h: 399: TXB1SIDLbits.SID0 = 0x01;
  4648  000FB6  010F               	movlb	15	; () banked
  4649  000FB8  8B32               	bsf	50,5,b	;volatile
  4650  000FBA                     l360:
  4651                           
  4652                           ;inc\CANlib.h: 400: if (identifier & 0x00080000)
  4653  000FBA  0100               	movlb	0	; () banked
  4654  000FBC  A776               	btfss	(CANsendMessage@identifier+2)& (0+255),3,b
  4655  000FBE  D002               	goto	l361
  4656                           
  4657                           ; BSR set to: 0
  4658                           ;inc\CANlib.h: 401: TXB1SIDLbits.SID1 = 0x01;
  4659  000FC0  010F               	movlb	15	; () banked
  4660  000FC2  8D32               	bsf	50,6,b	;volatile
  4661  000FC4                     l361:
  4662                           
  4663                           ;inc\CANlib.h: 402: if (identifier & 0x00100000)
  4664  000FC4  0100               	movlb	0	; () banked
  4665  000FC6  A976               	btfss	(CANsendMessage@identifier+2)& (0+255),4,b
  4666  000FC8  D002               	goto	l2926
  4667                           
  4668                           ; BSR set to: 0
  4669                           ;inc\CANlib.h: 403: TXB1SIDLbits.SID2 = 0x01;
  4670  000FCA  010F               	movlb	15	; () banked
  4671  000FCC  8F32               	bsf	50,7,b	;volatile
  4672  000FCE                     l2926:
  4673                           
  4674                           ;inc\CANlib.h: 405: tamp = (identifier >> 21);
  4675  000FCE  C074  F07C         	movff	CANsendMessage@identifier,??_CANsendMessage
  4676  000FD2  C075  F07D         	movff	CANsendMessage@identifier+1,??_CANsendMessage+1
  4677  000FD6  C076  F07E         	movff	CANsendMessage@identifier+2,??_CANsendMessage+2
  4678  000FDA  C077  F07F         	movff	CANsendMessage@identifier+3,??_CANsendMessage+3
  4679  000FDE  0E16               	movlw	22
  4680  000FE0  D006               	goto	u3130
  4681  000FE2                     u3135:
  4682  000FE2  0100               	movlb	0	; () banked
  4683  000FE4  90D8               	bcf	status,0,c
  4684  000FE6  337F               	rrcf	(??_CANsendMessage+3)& (0+255),f,b
  4685  000FE8  337E               	rrcf	(??_CANsendMessage+2)& (0+255),f,b
  4686  000FEA  337D               	rrcf	(??_CANsendMessage+1)& (0+255),f,b
  4687  000FEC  337C               	rrcf	??_CANsendMessage& (0+255),f,b
  4688  000FEE                     u3130:
  4689  000FEE  2EE8               	decfsz	wreg,f,c
  4690  000FF0  D7F8               	goto	u3135
  4691  000FF2  C07C  F080         	movff	??_CANsendMessage,CANsendMessage@tamp
  4692  000FF6  C07D  F081         	movff	??_CANsendMessage+1,CANsendMessage@tamp+1
  4693  000FFA  C07E  F082         	movff	??_CANsendMessage+2,CANsendMessage@tamp+2
  4694  000FFE  C07F  F083         	movff	??_CANsendMessage+3,CANsendMessage@tamp+3
  4695                           
  4696                           ; BSR set to: 0
  4697                           ;inc\CANlib.h: 406: tamp = tamp & 0x000000FF;
  4698  001002  0100               	movlb	0	; () banked
  4699  001004  5180               	movf	CANsendMessage@tamp& (0+255),w,b
  4700  001006  0100               	movlb	0	; () banked
  4701  001008  6F80               	movwf	CANsendMessage@tamp& (0+255),b
  4702  00100A  6B81               	clrf	(CANsendMessage@tamp+1)& (0+255),b
  4703  00100C  6B82               	clrf	(CANsendMessage@tamp+2)& (0+255),b
  4704  00100E  6B83               	clrf	(CANsendMessage@tamp+3)& (0+255),b
  4705                           
  4706                           ; BSR set to: 0
  4707                           ;inc\CANlib.h: 407: TXB1SIDH = (unsigned char) tamp;
  4708  001010  C080  FF31         	movff	CANsendMessage@tamp,3889	;volatile
  4709                           
  4710                           ;inc\CANlib.h: 408: }
  4711  001014  D059               	goto	l2946
  4712  001016                     l357:
  4713                           
  4714                           ; BSR set to: 0
  4715                           ;inc\CANlib.h: 410: else
  4716                           ;inc\CANlib.h: 412: {
  4717                           ;inc\CANlib.h: 413: TXB1SIDLbits.EXIDE = 0x00;
  4718  001016  010F               	movlb	15	; () banked
  4719  001018  9732               	bcf	50,3,b	;volatile
  4720                           
  4721                           ; BSR set to: 15
  4722                           ;inc\CANlib.h: 415: tamp = (identifier >> 3);
  4723  00101A  C074  F07C         	movff	CANsendMessage@identifier,??_CANsendMessage
  4724  00101E  C075  F07D         	movff	CANsendMessage@identifier+1,??_CANsendMessage+1
  4725  001022  C076  F07E         	movff	CANsendMessage@identifier+2,??_CANsendMessage+2
  4726  001026  C077  F07F         	movff	CANsendMessage@identifier+3,??_CANsendMessage+3
  4727  00102A  0E04               	movlw	4
  4728  00102C  D006               	goto	u3140
  4729  00102E                     u3145:
  4730  00102E  0100               	movlb	0	; () banked
  4731  001030  90D8               	bcf	status,0,c
  4732  001032  337F               	rrcf	(??_CANsendMessage+3)& (0+255),f,b
  4733  001034  337E               	rrcf	(??_CANsendMessage+2)& (0+255),f,b
  4734  001036  337D               	rrcf	(??_CANsendMessage+1)& (0+255),f,b
  4735  001038  337C               	rrcf	??_CANsendMessage& (0+255),f,b
  4736  00103A                     u3140:
  4737  00103A  2EE8               	decfsz	wreg,f,c
  4738  00103C  D7F8               	goto	u3145
  4739  00103E  C07C  F080         	movff	??_CANsendMessage,CANsendMessage@tamp
  4740  001042  C07D  F081         	movff	??_CANsendMessage+1,CANsendMessage@tamp+1
  4741  001046  C07E  F082         	movff	??_CANsendMessage+2,CANsendMessage@tamp+2
  4742  00104A  C07F  F083         	movff	??_CANsendMessage+3,CANsendMessage@tamp+3
  4743                           
  4744                           ; BSR set to: 0
  4745                           ;inc\CANlib.h: 416: tamp = tamp & 0x000000FF;
  4746  00104E  0100               	movlb	0	; () banked
  4747  001050  5180               	movf	CANsendMessage@tamp& (0+255),w,b
  4748  001052  0100               	movlb	0	; () banked
  4749  001054  6F80               	movwf	CANsendMessage@tamp& (0+255),b
  4750  001056  6B81               	clrf	(CANsendMessage@tamp+1)& (0+255),b
  4751  001058  6B82               	clrf	(CANsendMessage@tamp+2)& (0+255),b
  4752  00105A  6B83               	clrf	(CANsendMessage@tamp+3)& (0+255),b
  4753                           
  4754                           ; BSR set to: 0
  4755                           ;inc\CANlib.h: 417: TXB1SIDH = (unsigned char) tamp;
  4756  00105C  C080  FF31         	movff	CANsendMessage@tamp,3889	;volatile
  4757                           
  4758                           ; BSR set to: 0
  4759                           ;inc\CANlib.h: 419: tamp = identifier & 0x00000007;
  4760  001060  0E07               	movlw	7
  4761  001062  0100               	movlb	0	; () banked
  4762  001064  1574               	andwf	CANsendMessage@identifier& (0+255),w,b
  4763  001066  0100               	movlb	0	; () banked
  4764  001068  6F80               	movwf	CANsendMessage@tamp& (0+255),b
  4765  00106A  0E00               	movlw	0
  4766  00106C  0100               	movlb	0	; () banked
  4767  00106E  1575               	andwf	(CANsendMessage@identifier+1)& (0+255),w,b
  4768  001070  0100               	movlb	0	; () banked
  4769  001072  6F81               	movwf	(CANsendMessage@tamp+1)& (0+255),b
  4770  001074  0E00               	movlw	0
  4771  001076  0100               	movlb	0	; () banked
  4772  001078  1576               	andwf	(CANsendMessage@identifier+2)& (0+255),w,b
  4773  00107A  0100               	movlb	0	; () banked
  4774  00107C  6F82               	movwf	(CANsendMessage@tamp+2)& (0+255),b
  4775  00107E  0E00               	movlw	0
  4776  001080  0100               	movlb	0	; () banked
  4777  001082  1577               	andwf	(CANsendMessage@identifier+3)& (0+255),w,b
  4778  001084  0100               	movlb	0	; () banked
  4779  001086  6F83               	movwf	(CANsendMessage@tamp+3)& (0+255),b
  4780                           
  4781                           ; BSR set to: 0
  4782                           ;inc\CANlib.h: 420: tamp = tamp << 5;
  4783  001088  C080  F07C         	movff	CANsendMessage@tamp,??_CANsendMessage
  4784  00108C  C081  F07D         	movff	CANsendMessage@tamp+1,??_CANsendMessage+1
  4785  001090  C082  F07E         	movff	CANsendMessage@tamp+2,??_CANsendMessage+2
  4786  001094  C083  F07F         	movff	CANsendMessage@tamp+3,??_CANsendMessage+3
  4787  001098  0E05               	movlw	5
  4788  00109A                     u3155:
  4789  00109A  90D8               	bcf	status,0,c
  4790  00109C  0100               	movlb	0	; () banked
  4791  00109E  377C               	rlcf	??_CANsendMessage& (0+255),f,b
  4792  0010A0  377D               	rlcf	(??_CANsendMessage+1)& (0+255),f,b
  4793  0010A2  377E               	rlcf	(??_CANsendMessage+2)& (0+255),f,b
  4794  0010A4  377F               	rlcf	(??_CANsendMessage+3)& (0+255),f,b
  4795  0010A6  2EE8               	decfsz	wreg,f,c
  4796  0010A8  D7F8               	goto	u3155
  4797  0010AA  C07C  F080         	movff	??_CANsendMessage,CANsendMessage@tamp
  4798  0010AE  C07D  F081         	movff	??_CANsendMessage+1,CANsendMessage@tamp+1
  4799  0010B2  C07E  F082         	movff	??_CANsendMessage+2,CANsendMessage@tamp+2
  4800  0010B6  C07F  F083         	movff	??_CANsendMessage+3,CANsendMessage@tamp+3
  4801                           
  4802                           ; BSR set to: 0
  4803                           ;inc\CANlib.h: 421: TXB1SIDL = TXB1SIDL & 0b00011111;
  4804  0010BA  010F               	movlb	15	; () banked
  4805  0010BC  5132               	movf	50,w,b	;volatile
  4806  0010BE  0B1F               	andlw	31
  4807  0010C0  010F               	movlb	15	; () banked
  4808  0010C2  6F32               	movwf	50,b	;volatile
  4809                           
  4810                           ; BSR set to: 15
  4811                           ;inc\CANlib.h: 422: TXB1SIDL = (unsigned char) tamp;
  4812  0010C4  C080  FF32         	movff	CANsendMessage@tamp,3890	;volatile
  4813  0010C8                     l2946:
  4814                           
  4815                           ;inc\CANlib.h: 423: }
  4816                           ;inc\CANlib.h: 425: if (0b00000001 & flags)
  4817  0010C8  0100               	movlb	0	; () banked
  4818  0010CA  A17B               	btfss	CANsendMessage@flags& (0+255),0,b
  4819  0010CC  D003               	goto	l364
  4820                           
  4821                           ; BSR set to: 0
  4822                           ;inc\CANlib.h: 426: TXB1CONbits.TXPRI0 = 0x01;
  4823  0010CE  010F               	movlb	15	; () banked
  4824  0010D0  8130               	bsf	48,0,b	;volatile
  4825  0010D2  D002               	goto	l365
  4826  0010D4                     l364:
  4827                           
  4828                           ; BSR set to: 0
  4829                           ;inc\CANlib.h: 427: else
  4830                           ;inc\CANlib.h: 428: TXB1CONbits.TXPRI0 = 0x00;
  4831  0010D4  010F               	movlb	15	; () banked
  4832  0010D6  9130               	bcf	48,0,b	;volatile
  4833  0010D8                     l365:
  4834                           
  4835                           ; BSR set to: 15
  4836                           ;inc\CANlib.h: 429: if (0b00000010 & flags)
  4837  0010D8  0100               	movlb	0	; () banked
  4838  0010DA  A37B               	btfss	CANsendMessage@flags& (0+255),1,b
  4839  0010DC  D003               	goto	l366
  4840                           
  4841                           ; BSR set to: 0
  4842                           ;inc\CANlib.h: 430: TXB1CONbits.TXPRI1 = 0x01;
  4843  0010DE  010F               	movlb	15	; () banked
  4844  0010E0  8330               	bsf	48,1,b	;volatile
  4845  0010E2  D002               	goto	l2952
  4846  0010E4                     l366:
  4847                           
  4848                           ; BSR set to: 0
  4849                           ;inc\CANlib.h: 431: else
  4850                           ;inc\CANlib.h: 432: TXB1CONbits.TXPRI1 = 0x00;
  4851  0010E4  010F               	movlb	15	; () banked
  4852  0010E6  9330               	bcf	48,1,b	;volatile
  4853  0010E8                     l2952:
  4854                           
  4855                           ; BSR set to: 15
  4856                           ;inc\CANlib.h: 434: TXB1D0 = data[0];
  4857  0010E8  C078  FFD9         	movff	CANsendMessage@data,fsr2l
  4858  0010EC  C079  FFDA         	movff	CANsendMessage@data+1,fsr2h
  4859  0010F0  50DF               	movf	indf2,w,c
  4860  0010F2  010F               	movlb	15	; () banked
  4861  0010F4  6F36               	movwf	54,b	;volatile
  4862                           
  4863                           ; BSR set to: 15
  4864                           ;inc\CANlib.h: 435: TXB1D1 = data[1];
  4865  0010F6  0100               	movlb	0	; () banked
  4866  0010F8  EE20 F001          	lfsr	2,1
  4867  0010FC  5178               	movf	CANsendMessage@data& (0+255),w,b
  4868  0010FE  26D9               	addwf	fsr2l,f,c
  4869  001100  5179               	movf	(CANsendMessage@data+1)& (0+255),w,b
  4870  001102  22DA               	addwfc	fsr2h,f,c
  4871  001104  50DF               	movf	indf2,w,c
  4872  001106  010F               	movlb	15	; () banked
  4873  001108  6F37               	movwf	55,b	;volatile
  4874                           
  4875                           ; BSR set to: 15
  4876                           ;inc\CANlib.h: 436: TXB1D2 = data[2];
  4877  00110A  0100               	movlb	0	; () banked
  4878  00110C  EE20 F002          	lfsr	2,2
  4879  001110  5178               	movf	CANsendMessage@data& (0+255),w,b
  4880  001112  26D9               	addwf	fsr2l,f,c
  4881  001114  5179               	movf	(CANsendMessage@data+1)& (0+255),w,b
  4882  001116  22DA               	addwfc	fsr2h,f,c
  4883  001118  50DF               	movf	indf2,w,c
  4884  00111A  010F               	movlb	15	; () banked
  4885  00111C  6F38               	movwf	56,b	;volatile
  4886                           
  4887                           ; BSR set to: 15
  4888                           ;inc\CANlib.h: 437: TXB1D3 = data[3];
  4889  00111E  0100               	movlb	0	; () banked
  4890  001120  EE20 F003          	lfsr	2,3
  4891  001124  5178               	movf	CANsendMessage@data& (0+255),w,b
  4892  001126  26D9               	addwf	fsr2l,f,c
  4893  001128  5179               	movf	(CANsendMessage@data+1)& (0+255),w,b
  4894  00112A  22DA               	addwfc	fsr2h,f,c
  4895  00112C  50DF               	movf	indf2,w,c
  4896  00112E  010F               	movlb	15	; () banked
  4897  001130  6F39               	movwf	57,b	;volatile
  4898                           
  4899                           ; BSR set to: 15
  4900                           ;inc\CANlib.h: 438: TXB1D4 = data[4];
  4901  001132  0100               	movlb	0	; () banked
  4902  001134  EE20 F004          	lfsr	2,4
  4903  001138  5178               	movf	CANsendMessage@data& (0+255),w,b
  4904  00113A  26D9               	addwf	fsr2l,f,c
  4905  00113C  5179               	movf	(CANsendMessage@data+1)& (0+255),w,b
  4906  00113E  22DA               	addwfc	fsr2h,f,c
  4907  001140  50DF               	movf	indf2,w,c
  4908  001142  010F               	movlb	15	; () banked
  4909  001144  6F3A               	movwf	58,b	;volatile
  4910                           
  4911                           ; BSR set to: 15
  4912                           ;inc\CANlib.h: 439: TXB1D5 = data[5];
  4913  001146  0100               	movlb	0	; () banked
  4914  001148  EE20 F005          	lfsr	2,5
  4915  00114C  5178               	movf	CANsendMessage@data& (0+255),w,b
  4916  00114E  26D9               	addwf	fsr2l,f,c
  4917  001150  5179               	movf	(CANsendMessage@data+1)& (0+255),w,b
  4918  001152  22DA               	addwfc	fsr2h,f,c
  4919  001154  50DF               	movf	indf2,w,c
  4920  001156  010F               	movlb	15	; () banked
  4921  001158  6F3B               	movwf	59,b	;volatile
  4922                           
  4923                           ; BSR set to: 15
  4924                           ;inc\CANlib.h: 440: TXB1D6 = data[6];
  4925  00115A  0100               	movlb	0	; () banked
  4926  00115C  EE20 F006          	lfsr	2,6
  4927  001160  5178               	movf	CANsendMessage@data& (0+255),w,b
  4928  001162  26D9               	addwf	fsr2l,f,c
  4929  001164  5179               	movf	(CANsendMessage@data+1)& (0+255),w,b
  4930  001166  22DA               	addwfc	fsr2h,f,c
  4931  001168  50DF               	movf	indf2,w,c
  4932  00116A  010F               	movlb	15	; () banked
  4933  00116C  6F3C               	movwf	60,b	;volatile
  4934                           
  4935                           ; BSR set to: 15
  4936                           ;inc\CANlib.h: 441: TXB1D7 = data[7];
  4937  00116E  0100               	movlb	0	; () banked
  4938  001170  EE20 F007          	lfsr	2,7
  4939  001174  5178               	movf	CANsendMessage@data& (0+255),w,b
  4940  001176  26D9               	addwf	fsr2l,f,c
  4941  001178  5179               	movf	(CANsendMessage@data+1)& (0+255),w,b
  4942  00117A  22DA               	addwfc	fsr2h,f,c
  4943  00117C  50DF               	movf	indf2,w,c
  4944  00117E  010F               	movlb	15	; () banked
  4945  001180  6F3D               	movwf	61,b	;volatile
  4946                           
  4947                           ; BSR set to: 15
  4948                           ;inc\CANlib.h: 443: TXB1CONbits.TXREQ = 0x01;
  4949  001182  010F               	movlb	15	; () banked
  4950  001184  8730               	bsf	48,3,b	;volatile
  4951                           
  4952                           ; BSR set to: 15
  4953                           ;inc\CANlib.h: 445: return;
  4954  001186  0012               	return	
  4955  001188                     l354:
  4956                           
  4957                           ; BSR set to: 15
  4958                           ;inc\CANlib.h: 446: }
  4959                           ;inc\CANlib.h: 450: if (TXB2CONbits.TXREQ == 0)
  4960  001188  010F               	movlb	15	; () banked
  4961  00118A  B720               	btfsc	32,3,b	;volatile
  4962  00118C  0012               	return	
  4963                           
  4964                           ; BSR set to: 15
  4965                           ;inc\CANlib.h: 451: { TXB2DLC = dataLength;
  4966  00118E  C07A  FF25         	movff	CANsendMessage@dataLength,3877	;volatile
  4967                           
  4968                           ;inc\CANlib.h: 453: if (0b01000000 & flags)
  4969  001192  0100               	movlb	0	; () banked
  4970  001194  AD7B               	btfss	CANsendMessage@flags& (0+255),6,b
  4971  001196  D003               	goto	l369
  4972                           
  4973                           ; BSR set to: 0
  4974                           ;inc\CANlib.h: 454: TXB2DLCbits.TXRTR = 0x01;
  4975  001198  010F               	movlb	15	; () banked
  4976  00119A  8D25               	bsf	37,6,b	;volatile
  4977  00119C  D002               	goto	l370
  4978  00119E                     l369:
  4979                           
  4980                           ; BSR set to: 0
  4981                           ;inc\CANlib.h: 455: else
  4982                           ;inc\CANlib.h: 456: TXB2DLCbits.TXRTR = 0x00;
  4983  00119E  010F               	movlb	15	; () banked
  4984  0011A0  9D25               	bcf	37,6,b	;volatile
  4985  0011A2                     l370:
  4986                           
  4987                           ; BSR set to: 15
  4988                           ;inc\CANlib.h: 458: if (CAN_TX_FRAME_MASK & flags)
  4989  0011A2  0100               	movlb	0	; () banked
  4990  0011A4  A77B               	btfss	CANsendMessage@flags& (0+255),3,b
  4991  0011A6  D079               	goto	l371
  4992                           
  4993                           ; BSR set to: 0
  4994                           ;inc\CANlib.h: 459: {
  4995                           ;inc\CANlib.h: 460: tamp = identifier & 0x000000FF;
  4996  0011A8  0100               	movlb	0	; () banked
  4997  0011AA  5174               	movf	CANsendMessage@identifier& (0+255),w,b
  4998  0011AC  0100               	movlb	0	; () banked
  4999  0011AE  6F80               	movwf	CANsendMessage@tamp& (0+255),b
  5000  0011B0  6B81               	clrf	(CANsendMessage@tamp+1)& (0+255),b
  5001  0011B2  6B82               	clrf	(CANsendMessage@tamp+2)& (0+255),b
  5002  0011B4  6B83               	clrf	(CANsendMessage@tamp+3)& (0+255),b
  5003                           
  5004                           ; BSR set to: 0
  5005                           ;inc\CANlib.h: 461: TXB2EIDL = (unsigned char) tamp;
  5006  0011B6  C080  FF24         	movff	CANsendMessage@tamp,3876	;volatile
  5007                           
  5008                           ; BSR set to: 0
  5009                           ;inc\CANlib.h: 463: tamp = identifier & 0x0000FF00;
  5010  0011BA  0E00               	movlw	0
  5011  0011BC  0100               	movlb	0	; () banked
  5012  0011BE  1574               	andwf	CANsendMessage@identifier& (0+255),w,b
  5013  0011C0  0100               	movlb	0	; () banked
  5014  0011C2  6F80               	movwf	CANsendMessage@tamp& (0+255),b
  5015  0011C4  0EFF               	movlw	255
  5016  0011C6  0100               	movlb	0	; () banked
  5017  0011C8  1575               	andwf	(CANsendMessage@identifier+1)& (0+255),w,b
  5018  0011CA  0100               	movlb	0	; () banked
  5019  0011CC  6F81               	movwf	(CANsendMessage@tamp+1)& (0+255),b
  5020  0011CE  0E00               	movlw	0
  5021  0011D0  0100               	movlb	0	; () banked
  5022  0011D2  1576               	andwf	(CANsendMessage@identifier+2)& (0+255),w,b
  5023  0011D4  0100               	movlb	0	; () banked
  5024  0011D6  6F82               	movwf	(CANsendMessage@tamp+2)& (0+255),b
  5025  0011D8  0E00               	movlw	0
  5026  0011DA  0100               	movlb	0	; () banked
  5027  0011DC  1577               	andwf	(CANsendMessage@identifier+3)& (0+255),w,b
  5028  0011DE  0100               	movlb	0	; () banked
  5029  0011E0  6F83               	movwf	(CANsendMessage@tamp+3)& (0+255),b
  5030                           
  5031                           ; BSR set to: 0
  5032                           ;inc\CANlib.h: 464: tamp = tamp >> 8;
  5033  0011E2  C080  F07C         	movff	CANsendMessage@tamp,??_CANsendMessage
  5034  0011E6  C081  F07D         	movff	CANsendMessage@tamp+1,??_CANsendMessage+1
  5035  0011EA  C082  F07E         	movff	CANsendMessage@tamp+2,??_CANsendMessage+2
  5036  0011EE  C083  F07F         	movff	CANsendMessage@tamp+3,??_CANsendMessage+3
  5037  0011F2  C07D  F07C         	movff	??_CANsendMessage+1,??_CANsendMessage
  5038  0011F6  C07E  F07D         	movff	??_CANsendMessage+2,??_CANsendMessage+1
  5039  0011FA  C07F  F07E         	movff	??_CANsendMessage+3,??_CANsendMessage+2
  5040  0011FE  0100               	movlb	0	; () banked
  5041  001200  6B7F               	clrf	(??_CANsendMessage+3)& (0+255),b
  5042  001202  C07C  F080         	movff	??_CANsendMessage,CANsendMessage@tamp
  5043  001206  C07D  F081         	movff	??_CANsendMessage+1,CANsendMessage@tamp+1
  5044  00120A  C07E  F082         	movff	??_CANsendMessage+2,CANsendMessage@tamp+2
  5045  00120E  C07F  F083         	movff	??_CANsendMessage+3,CANsendMessage@tamp+3
  5046                           
  5047                           ; BSR set to: 0
  5048                           ;inc\CANlib.h: 465: TXB2EIDH = (unsigned char) tamp;
  5049  001212  C080  FF23         	movff	CANsendMessage@tamp,3875	;volatile
  5050                           
  5051                           ; BSR set to: 0
  5052                           ;inc\CANlib.h: 467: TXB2SIDL = 0x00;
  5053  001216  0E00               	movlw	0
  5054  001218  010F               	movlb	15	; () banked
  5055  00121A  6F22               	movwf	34,b	;volatile
  5056                           
  5057                           ; BSR set to: 15
  5058                           ;inc\CANlib.h: 468: TXB2SIDLbits.EXIDE = 0x01;
  5059  00121C  010F               	movlb	15	; () banked
  5060  00121E  8722               	bsf	34,3,b	;volatile
  5061                           
  5062                           ; BSR set to: 15
  5063                           ;inc\CANlib.h: 470: if (identifier & 0x00010000)
  5064  001220  0100               	movlb	0	; () banked
  5065  001222  A176               	btfss	(CANsendMessage@identifier+2)& (0+255),0,b
  5066  001224  D002               	goto	l372
  5067                           
  5068                           ; BSR set to: 0
  5069                           ;inc\CANlib.h: 471: TXB2SIDLbits.EID16 = 0x01;
  5070  001226  010F               	movlb	15	; () banked
  5071  001228  8122               	bsf	34,0,b	;volatile
  5072  00122A                     l372:
  5073                           
  5074                           ;inc\CANlib.h: 472: if (identifier & 0x00020000)
  5075  00122A  0100               	movlb	0	; () banked
  5076  00122C  A376               	btfss	(CANsendMessage@identifier+2)& (0+255),1,b
  5077  00122E  D002               	goto	l373
  5078                           
  5079                           ; BSR set to: 0
  5080                           ;inc\CANlib.h: 473: TXB2SIDLbits.EID17 = 0x01;
  5081  001230  010F               	movlb	15	; () banked
  5082  001232  8322               	bsf	34,1,b	;volatile
  5083  001234                     l373:
  5084                           
  5085                           ;inc\CANlib.h: 474: if (identifier & 0x00040000)
  5086  001234  0100               	movlb	0	; () banked
  5087  001236  A576               	btfss	(CANsendMessage@identifier+2)& (0+255),2,b
  5088  001238  D002               	goto	l374
  5089                           
  5090                           ; BSR set to: 0
  5091                           ;inc\CANlib.h: 475: TXB2SIDLbits.SID0 = 0x01;
  5092  00123A  010F               	movlb	15	; () banked
  5093  00123C  8B22               	bsf	34,5,b	;volatile
  5094  00123E                     l374:
  5095                           
  5096                           ;inc\CANlib.h: 476: if (identifier & 0x00080000)
  5097  00123E  0100               	movlb	0	; () banked
  5098  001240  A776               	btfss	(CANsendMessage@identifier+2)& (0+255),3,b
  5099  001242  D002               	goto	l375
  5100                           
  5101                           ; BSR set to: 0
  5102                           ;inc\CANlib.h: 477: TXB2SIDLbits.SID1 = 0x01;
  5103  001244  010F               	movlb	15	; () banked
  5104  001246  8D22               	bsf	34,6,b	;volatile
  5105  001248                     l375:
  5106                           
  5107                           ;inc\CANlib.h: 478: if (identifier & 0x00100000)
  5108  001248  0100               	movlb	0	; () banked
  5109  00124A  A976               	btfss	(CANsendMessage@identifier+2)& (0+255),4,b
  5110  00124C  D002               	goto	l3002
  5111                           
  5112                           ; BSR set to: 0
  5113                           ;inc\CANlib.h: 479: TXB2SIDLbits.SID2 = 0x01;
  5114  00124E  010F               	movlb	15	; () banked
  5115  001250  8F22               	bsf	34,7,b	;volatile
  5116  001252                     l3002:
  5117                           
  5118                           ;inc\CANlib.h: 481: tamp = (identifier >> 21);
  5119  001252  C074  F07C         	movff	CANsendMessage@identifier,??_CANsendMessage
  5120  001256  C075  F07D         	movff	CANsendMessage@identifier+1,??_CANsendMessage+1
  5121  00125A  C076  F07E         	movff	CANsendMessage@identifier+2,??_CANsendMessage+2
  5122  00125E  C077  F07F         	movff	CANsendMessage@identifier+3,??_CANsendMessage+3
  5123  001262  0E16               	movlw	22
  5124  001264  D006               	goto	u3260
  5125  001266                     u3265:
  5126  001266  0100               	movlb	0	; () banked
  5127  001268  90D8               	bcf	status,0,c
  5128  00126A  337F               	rrcf	(??_CANsendMessage+3)& (0+255),f,b
  5129  00126C  337E               	rrcf	(??_CANsendMessage+2)& (0+255),f,b
  5130  00126E  337D               	rrcf	(??_CANsendMessage+1)& (0+255),f,b
  5131  001270  337C               	rrcf	??_CANsendMessage& (0+255),f,b
  5132  001272                     u3260:
  5133  001272  2EE8               	decfsz	wreg,f,c
  5134  001274  D7F8               	goto	u3265
  5135  001276  C07C  F080         	movff	??_CANsendMessage,CANsendMessage@tamp
  5136  00127A  C07D  F081         	movff	??_CANsendMessage+1,CANsendMessage@tamp+1
  5137  00127E  C07E  F082         	movff	??_CANsendMessage+2,CANsendMessage@tamp+2
  5138  001282  C07F  F083         	movff	??_CANsendMessage+3,CANsendMessage@tamp+3
  5139                           
  5140                           ; BSR set to: 0
  5141                           ;inc\CANlib.h: 482: tamp = tamp & 0x000000FF;
  5142  001286  0100               	movlb	0	; () banked
  5143  001288  5180               	movf	CANsendMessage@tamp& (0+255),w,b
  5144  00128A  0100               	movlb	0	; () banked
  5145  00128C  6F80               	movwf	CANsendMessage@tamp& (0+255),b
  5146  00128E  6B81               	clrf	(CANsendMessage@tamp+1)& (0+255),b
  5147  001290  6B82               	clrf	(CANsendMessage@tamp+2)& (0+255),b
  5148  001292  6B83               	clrf	(CANsendMessage@tamp+3)& (0+255),b
  5149                           
  5150                           ; BSR set to: 0
  5151                           ;inc\CANlib.h: 483: TXB2SIDH = (unsigned char) tamp;
  5152  001294  C080  FF21         	movff	CANsendMessage@tamp,3873	;volatile
  5153                           
  5154                           ;inc\CANlib.h: 484: }
  5155  001298  D059               	goto	l3022
  5156  00129A                     l371:
  5157                           
  5158                           ; BSR set to: 0
  5159                           ;inc\CANlib.h: 486: else
  5160                           ;inc\CANlib.h: 488: {
  5161                           ;inc\CANlib.h: 489: TXB2SIDLbits.EXIDE = 0x00;
  5162  00129A  010F               	movlb	15	; () banked
  5163  00129C  9722               	bcf	34,3,b	;volatile
  5164                           
  5165                           ; BSR set to: 15
  5166                           ;inc\CANlib.h: 491: tamp = (identifier >> 3);
  5167  00129E  C074  F07C         	movff	CANsendMessage@identifier,??_CANsendMessage
  5168  0012A2  C075  F07D         	movff	CANsendMessage@identifier+1,??_CANsendMessage+1
  5169  0012A6  C076  F07E         	movff	CANsendMessage@identifier+2,??_CANsendMessage+2
  5170  0012AA  C077  F07F         	movff	CANsendMessage@identifier+3,??_CANsendMessage+3
  5171  0012AE  0E04               	movlw	4
  5172  0012B0  D006               	goto	u3270
  5173  0012B2                     u3275:
  5174  0012B2  0100               	movlb	0	; () banked
  5175  0012B4  90D8               	bcf	status,0,c
  5176  0012B6  337F               	rrcf	(??_CANsendMessage+3)& (0+255),f,b
  5177  0012B8  337E               	rrcf	(??_CANsendMessage+2)& (0+255),f,b
  5178  0012BA  337D               	rrcf	(??_CANsendMessage+1)& (0+255),f,b
  5179  0012BC  337C               	rrcf	??_CANsendMessage& (0+255),f,b
  5180  0012BE                     u3270:
  5181  0012BE  2EE8               	decfsz	wreg,f,c
  5182  0012C0  D7F8               	goto	u3275
  5183  0012C2  C07C  F080         	movff	??_CANsendMessage,CANsendMessage@tamp
  5184  0012C6  C07D  F081         	movff	??_CANsendMessage+1,CANsendMessage@tamp+1
  5185  0012CA  C07E  F082         	movff	??_CANsendMessage+2,CANsendMessage@tamp+2
  5186  0012CE  C07F  F083         	movff	??_CANsendMessage+3,CANsendMessage@tamp+3
  5187                           
  5188                           ; BSR set to: 0
  5189                           ;inc\CANlib.h: 492: tamp = tamp & 0x000000FF;
  5190  0012D2  0100               	movlb	0	; () banked
  5191  0012D4  5180               	movf	CANsendMessage@tamp& (0+255),w,b
  5192  0012D6  0100               	movlb	0	; () banked
  5193  0012D8  6F80               	movwf	CANsendMessage@tamp& (0+255),b
  5194  0012DA  6B81               	clrf	(CANsendMessage@tamp+1)& (0+255),b
  5195  0012DC  6B82               	clrf	(CANsendMessage@tamp+2)& (0+255),b
  5196  0012DE  6B83               	clrf	(CANsendMessage@tamp+3)& (0+255),b
  5197                           
  5198                           ; BSR set to: 0
  5199                           ;inc\CANlib.h: 493: TXB2SIDH = (unsigned char) tamp;
  5200  0012E0  C080  FF21         	movff	CANsendMessage@tamp,3873	;volatile
  5201                           
  5202                           ; BSR set to: 0
  5203                           ;inc\CANlib.h: 495: tamp = identifier & 0x00000007;
  5204  0012E4  0E07               	movlw	7
  5205  0012E6  0100               	movlb	0	; () banked
  5206  0012E8  1574               	andwf	CANsendMessage@identifier& (0+255),w,b
  5207  0012EA  0100               	movlb	0	; () banked
  5208  0012EC  6F80               	movwf	CANsendMessage@tamp& (0+255),b
  5209  0012EE  0E00               	movlw	0
  5210  0012F0  0100               	movlb	0	; () banked
  5211  0012F2  1575               	andwf	(CANsendMessage@identifier+1)& (0+255),w,b
  5212  0012F4  0100               	movlb	0	; () banked
  5213  0012F6  6F81               	movwf	(CANsendMessage@tamp+1)& (0+255),b
  5214  0012F8  0E00               	movlw	0
  5215  0012FA  0100               	movlb	0	; () banked
  5216  0012FC  1576               	andwf	(CANsendMessage@identifier+2)& (0+255),w,b
  5217  0012FE  0100               	movlb	0	; () banked
  5218  001300  6F82               	movwf	(CANsendMessage@tamp+2)& (0+255),b
  5219  001302  0E00               	movlw	0
  5220  001304  0100               	movlb	0	; () banked
  5221  001306  1577               	andwf	(CANsendMessage@identifier+3)& (0+255),w,b
  5222  001308  0100               	movlb	0	; () banked
  5223  00130A  6F83               	movwf	(CANsendMessage@tamp+3)& (0+255),b
  5224                           
  5225                           ; BSR set to: 0
  5226                           ;inc\CANlib.h: 496: tamp = tamp << 5;
  5227  00130C  C080  F07C         	movff	CANsendMessage@tamp,??_CANsendMessage
  5228  001310  C081  F07D         	movff	CANsendMessage@tamp+1,??_CANsendMessage+1
  5229  001314  C082  F07E         	movff	CANsendMessage@tamp+2,??_CANsendMessage+2
  5230  001318  C083  F07F         	movff	CANsendMessage@tamp+3,??_CANsendMessage+3
  5231  00131C  0E05               	movlw	5
  5232  00131E                     u3285:
  5233  00131E  90D8               	bcf	status,0,c
  5234  001320  0100               	movlb	0	; () banked
  5235  001322  377C               	rlcf	??_CANsendMessage& (0+255),f,b
  5236  001324  377D               	rlcf	(??_CANsendMessage+1)& (0+255),f,b
  5237  001326  377E               	rlcf	(??_CANsendMessage+2)& (0+255),f,b
  5238  001328  377F               	rlcf	(??_CANsendMessage+3)& (0+255),f,b
  5239  00132A  2EE8               	decfsz	wreg,f,c
  5240  00132C  D7F8               	goto	u3285
  5241  00132E  C07C  F080         	movff	??_CANsendMessage,CANsendMessage@tamp
  5242  001332  C07D  F081         	movff	??_CANsendMessage+1,CANsendMessage@tamp+1
  5243  001336  C07E  F082         	movff	??_CANsendMessage+2,CANsendMessage@tamp+2
  5244  00133A  C07F  F083         	movff	??_CANsendMessage+3,CANsendMessage@tamp+3
  5245                           
  5246                           ; BSR set to: 0
  5247                           ;inc\CANlib.h: 497: TXB2SIDL = TXB2SIDL & 0b00011111;
  5248  00133E  010F               	movlb	15	; () banked
  5249  001340  5122               	movf	34,w,b	;volatile
  5250  001342  0B1F               	andlw	31
  5251  001344  010F               	movlb	15	; () banked
  5252  001346  6F22               	movwf	34,b	;volatile
  5253                           
  5254                           ; BSR set to: 15
  5255                           ;inc\CANlib.h: 498: TXB2SIDL = (unsigned char) tamp;
  5256  001348  C080  FF22         	movff	CANsendMessage@tamp,3874	;volatile
  5257  00134C                     l3022:
  5258                           
  5259                           ;inc\CANlib.h: 499: }
  5260                           ;inc\CANlib.h: 501: if (0b00000001 & flags)
  5261  00134C  0100               	movlb	0	; () banked
  5262  00134E  A17B               	btfss	CANsendMessage@flags& (0+255),0,b
  5263  001350  D003               	goto	l378
  5264                           
  5265                           ; BSR set to: 0
  5266                           ;inc\CANlib.h: 502: TXB2CONbits.TXPRI0 = 0x01;
  5267  001352  010F               	movlb	15	; () banked
  5268  001354  8120               	bsf	32,0,b	;volatile
  5269  001356  D002               	goto	l379
  5270  001358                     l378:
  5271                           
  5272                           ; BSR set to: 0
  5273                           ;inc\CANlib.h: 503: else
  5274                           ;inc\CANlib.h: 504: TXB2CONbits.TXPRI0 = 0x00;
  5275  001358  010F               	movlb	15	; () banked
  5276  00135A  9120               	bcf	32,0,b	;volatile
  5277  00135C                     l379:
  5278                           
  5279                           ; BSR set to: 15
  5280                           ;inc\CANlib.h: 505: if (0b00000010 & flags)
  5281  00135C  0100               	movlb	0	; () banked
  5282  00135E  A37B               	btfss	CANsendMessage@flags& (0+255),1,b
  5283  001360  D003               	goto	l380
  5284                           
  5285                           ; BSR set to: 0
  5286                           ;inc\CANlib.h: 506: TXB2CONbits.TXPRI1 = 0x01;
  5287  001362  010F               	movlb	15	; () banked
  5288  001364  8320               	bsf	32,1,b	;volatile
  5289  001366  D002               	goto	l3028
  5290  001368                     l380:
  5291                           
  5292                           ; BSR set to: 0
  5293                           ;inc\CANlib.h: 507: else
  5294                           ;inc\CANlib.h: 508: TXB2CONbits.TXPRI1 = 0x00;
  5295  001368  010F               	movlb	15	; () banked
  5296  00136A  9320               	bcf	32,1,b	;volatile
  5297  00136C                     l3028:
  5298                           
  5299                           ; BSR set to: 15
  5300                           ;inc\CANlib.h: 510: TXB2D0 = data[0];
  5301  00136C  C078  FFD9         	movff	CANsendMessage@data,fsr2l
  5302  001370  C079  FFDA         	movff	CANsendMessage@data+1,fsr2h
  5303  001374  50DF               	movf	indf2,w,c
  5304  001376  010F               	movlb	15	; () banked
  5305  001378  6F26               	movwf	38,b	;volatile
  5306                           
  5307                           ; BSR set to: 15
  5308                           ;inc\CANlib.h: 511: TXB2D1 = data[1];
  5309  00137A  0100               	movlb	0	; () banked
  5310  00137C  EE20 F001          	lfsr	2,1
  5311  001380  5178               	movf	CANsendMessage@data& (0+255),w,b
  5312  001382  26D9               	addwf	fsr2l,f,c
  5313  001384  5179               	movf	(CANsendMessage@data+1)& (0+255),w,b
  5314  001386  22DA               	addwfc	fsr2h,f,c
  5315  001388  50DF               	movf	indf2,w,c
  5316  00138A  010F               	movlb	15	; () banked
  5317  00138C  6F27               	movwf	39,b	;volatile
  5318                           
  5319                           ; BSR set to: 15
  5320                           ;inc\CANlib.h: 512: TXB2D2 = data[2];
  5321  00138E  0100               	movlb	0	; () banked
  5322  001390  EE20 F002          	lfsr	2,2
  5323  001394  5178               	movf	CANsendMessage@data& (0+255),w,b
  5324  001396  26D9               	addwf	fsr2l,f,c
  5325  001398  5179               	movf	(CANsendMessage@data+1)& (0+255),w,b
  5326  00139A  22DA               	addwfc	fsr2h,f,c
  5327  00139C  50DF               	movf	indf2,w,c
  5328  00139E  010F               	movlb	15	; () banked
  5329  0013A0  6F28               	movwf	40,b	;volatile
  5330                           
  5331                           ; BSR set to: 15
  5332                           ;inc\CANlib.h: 513: TXB2D3 = data[3];
  5333  0013A2  0100               	movlb	0	; () banked
  5334  0013A4  EE20 F003          	lfsr	2,3
  5335  0013A8  5178               	movf	CANsendMessage@data& (0+255),w,b
  5336  0013AA  26D9               	addwf	fsr2l,f,c
  5337  0013AC  5179               	movf	(CANsendMessage@data+1)& (0+255),w,b
  5338  0013AE  22DA               	addwfc	fsr2h,f,c
  5339  0013B0  50DF               	movf	indf2,w,c
  5340  0013B2  010F               	movlb	15	; () banked
  5341  0013B4  6F29               	movwf	41,b	;volatile
  5342                           
  5343                           ; BSR set to: 15
  5344                           ;inc\CANlib.h: 514: TXB2D4 = data[4];
  5345  0013B6  0100               	movlb	0	; () banked
  5346  0013B8  EE20 F004          	lfsr	2,4
  5347  0013BC  5178               	movf	CANsendMessage@data& (0+255),w,b
  5348  0013BE  26D9               	addwf	fsr2l,f,c
  5349  0013C0  5179               	movf	(CANsendMessage@data+1)& (0+255),w,b
  5350  0013C2  22DA               	addwfc	fsr2h,f,c
  5351  0013C4  50DF               	movf	indf2,w,c
  5352  0013C6  010F               	movlb	15	; () banked
  5353  0013C8  6F2A               	movwf	42,b	;volatile
  5354                           
  5355                           ; BSR set to: 15
  5356                           ;inc\CANlib.h: 515: TXB2D5 = data[5];
  5357  0013CA  0100               	movlb	0	; () banked
  5358  0013CC  EE20 F005          	lfsr	2,5
  5359  0013D0  5178               	movf	CANsendMessage@data& (0+255),w,b
  5360  0013D2  26D9               	addwf	fsr2l,f,c
  5361  0013D4  5179               	movf	(CANsendMessage@data+1)& (0+255),w,b
  5362  0013D6  22DA               	addwfc	fsr2h,f,c
  5363  0013D8  50DF               	movf	indf2,w,c
  5364  0013DA  010F               	movlb	15	; () banked
  5365  0013DC  6F2B               	movwf	43,b	;volatile
  5366                           
  5367                           ; BSR set to: 15
  5368                           ;inc\CANlib.h: 516: TXB2D6 = data[6];
  5369  0013DE  0100               	movlb	0	; () banked
  5370  0013E0  EE20 F006          	lfsr	2,6
  5371  0013E4  5178               	movf	CANsendMessage@data& (0+255),w,b
  5372  0013E6  26D9               	addwf	fsr2l,f,c
  5373  0013E8  5179               	movf	(CANsendMessage@data+1)& (0+255),w,b
  5374  0013EA  22DA               	addwfc	fsr2h,f,c
  5375  0013EC  50DF               	movf	indf2,w,c
  5376  0013EE  010F               	movlb	15	; () banked
  5377  0013F0  6F2C               	movwf	44,b	;volatile
  5378                           
  5379                           ; BSR set to: 15
  5380                           ;inc\CANlib.h: 517: TXB2D7 = data[7];
  5381  0013F2  0100               	movlb	0	; () banked
  5382  0013F4  EE20 F007          	lfsr	2,7
  5383  0013F8  5178               	movf	CANsendMessage@data& (0+255),w,b
  5384  0013FA  26D9               	addwf	fsr2l,f,c
  5385  0013FC  5179               	movf	(CANsendMessage@data+1)& (0+255),w,b
  5386  0013FE  22DA               	addwfc	fsr2h,f,c
  5387  001400  50DF               	movf	indf2,w,c
  5388  001402  010F               	movlb	15	; () banked
  5389  001404  6F2D               	movwf	45,b	;volatile
  5390                           
  5391                           ; BSR set to: 15
  5392                           ;inc\CANlib.h: 519: TXB2CONbits.TXREQ = 0x01;
  5393  001406  010F               	movlb	15	; () banked
  5394  001408  8720               	bsf	32,3,b	;volatile
  5395                           
  5396                           ; BSR set to: 15
  5397                           ;inc\CANlib.h: 521: return;
  5398  00140A  0012               	return	
  5399  00140C                     __end_of_CANsendMessage:
  5400                           	opt stack 0
  5401                           tblptru	equ	0xFF8
  5402                           tblptrh	equ	0xFF7
  5403                           tblptrl	equ	0xFF6
  5404                           tablat	equ	0xFF5
  5405                           intcon	equ	0xFF2
  5406                           intcon2	equ	0xFF1
  5407                           postinc0	equ	0xFEE
  5408                           wreg	equ	0xFE8
  5409                           indf2	equ	0xFDF
  5410                           fsr2h	equ	0xFDA
  5411                           fsr2l	equ	0xFD9
  5412                           status	equ	0xFD8
  5413                           
  5414 ;; *************** function _CANisTxReady *****************
  5415 ;; Defined at:
  5416 ;;		line 1155 in file "../../LaurTec_PIC_libraries_v_3.3.0/inc\CANlib.h"
  5417 ;; Parameters:    Size  Location     Type
  5418 ;;		None
  5419 ;; Auto vars:     Size  Location     Type
  5420 ;;		None
  5421 ;; Return value:  Size  Location     Type
  5422 ;;                  1    wreg      unsigned char 
  5423 ;; Registers used:
  5424 ;;		wreg, status,2
  5425 ;; Tracked objects:
  5426 ;;		On entry : 0/0
  5427 ;;		On exit  : 0/0
  5428 ;;		Unchanged: 0/0
  5429 ;; Data sizes:     COMRAM   BANK0   BANK1   BANK2   BANK3   BANK4   BANK5   BANK6   BANK7   BANK8   BANK9  BANK10  BANK1
      +1  BANK12
  5430 ;;      Params:         0       0       0       0       0       0       0       0       0       0       0       0       
      +0       0
  5431 ;;      Locals:         0       1       0       0       0       0       0       0       0       0       0       0       
      +0       0
  5432 ;;      Temps:          0       0       0       0       0       0       0       0       0       0       0       0       
      +0       0
  5433 ;;      Totals:         0       1       0       0       0       0       0       0       0       0       0       0       
      +0       0
  5434 ;;Total ram usage:        1 bytes
  5435 ;; Hardware stack levels used:    1
  5436 ;; Hardware stack levels required when called:    4
  5437 ;; This function calls:
  5438 ;;		Nothing
  5439 ;; This function is called by:
  5440 ;;		_main
  5441 ;; This function uses a non-reentrant model
  5442 ;;
  5443                           
  5444                           	psect	text7
  5445  002142                     __ptext7:
  5446                           	opt stack 0
  5447  002142                     _CANisTxReady:
  5448                           	opt stack 26
  5449                           
  5450                           ;inc\CANlib.h: 1157: return (!TXB0CONbits.TXREQ || !TXB1CONbits.TXREQ || !TXB2CONbits.TX
      +                          REQ);
  5451                           
  5452                           ; BSR set to: 15
  5453                           ;incstack = 0
  5454  002142  0E01               	movlw	1
  5455  002144  0100               	movlb	0	; () banked
  5456  002146  6F74               	movwf	_CANisTxReady$2722& (0+255),b
  5457                           
  5458                           ; BSR set to: 0
  5459  002148  010F               	movlb	15	; () banked
  5460  00214A  A740               	btfss	64,3,b	;volatile
  5461  00214C  D009               	goto	l532
  5462                           
  5463                           ; BSR set to: 15
  5464  00214E  010F               	movlb	15	; () banked
  5465  002150  A730               	btfss	48,3,b	;volatile
  5466  002152  D006               	goto	l532
  5467                           
  5468                           ; BSR set to: 15
  5469  002154  010F               	movlb	15	; () banked
  5470  002156  A720               	btfss	32,3,b	;volatile
  5471  002158  D003               	goto	l532
  5472                           
  5473                           ; BSR set to: 15
  5474  00215A  0E00               	movlw	0
  5475  00215C  0100               	movlb	0	; () banked
  5476  00215E  6F74               	movwf	_CANisTxReady$2722& (0+255),b
  5477  002160                     l532:
  5478  002160  0100               	movlb	0	; () banked
  5479  002162  5174               	movf	_CANisTxReady$2722& (0+255),w,b
  5480  002164  0012               	return	
  5481  002166                     __end_of_CANisTxReady:
  5482                           	opt stack 0
  5483                           tblptru	equ	0xFF8
  5484                           tblptrh	equ	0xFF7
  5485                           tblptrl	equ	0xFF6
  5486                           tablat	equ	0xFF5
  5487                           intcon	equ	0xFF2
  5488                           intcon2	equ	0xFF1
  5489                           postinc0	equ	0xFEE
  5490                           wreg	equ	0xFE8
  5491                           indf2	equ	0xFDF
  5492                           fsr2h	equ	0xFDA
  5493                           fsr2l	equ	0xFD9
  5494                           status	equ	0xFD8
  5495                           
  5496 ;; *************** function _ISR_Bassa *****************
  5497 ;; Defined at:
  5498 ;;		line 54 in file "parcheggio.c"
  5499 ;; Parameters:    Size  Location     Type
  5500 ;;		None
  5501 ;; Auto vars:     Size  Location     Type
  5502 ;;  gigi            1   31[COMRAM] unsigned char 
  5503 ;; Return value:  Size  Location     Type
  5504 ;;		None               void
  5505 ;; Registers used:
  5506 ;;		wreg, fsr2l, fsr2h, status,2, status,0, prodl, prodh, cstack
  5507 ;; Tracked objects:
  5508 ;;		On entry : 0/0
  5509 ;;		On exit  : 0/0
  5510 ;;		Unchanged: 0/0
  5511 ;; Data sizes:     COMRAM   BANK0   BANK1   BANK2   BANK3   BANK4   BANK5   BANK6   BANK7   BANK8   BANK9  BANK10  BANK1
      +1  BANK12
  5512 ;;      Params:         0       0       0       0       0       0       0       0       0       0       0       0       
      +0       0
  5513 ;;      Locals:         1       0       0       0       0       0       0       0       0       0       0       0       
      +0       0
  5514 ;;      Temps:         19       0       0       0       0       0       0       0       0       0       0       0       
      +0       0
  5515 ;;      Totals:        20       0       0       0       0       0       0       0       0       0       0       0       
      +0       0
  5516 ;;Total ram usage:       20 bytes
  5517 ;; Hardware stack levels used:    1
  5518 ;; Hardware stack levels required when called:    3
  5519 ;; This function calls:
  5520 ;;		_CANisRxReady
  5521 ;;		_CANreceiveMessage
  5522 ;; This function is called by:
  5523 ;;		Interrupt level 1
  5524 ;; This function uses a non-reentrant model
  5525 ;;
  5526                           
  5527                           	psect	intcodelo
  5528  000018                     __pintcodelo:
  5529                           	opt stack 0
  5530  000018                     _ISR_Bassa:
  5531                           	opt stack 24
  5532                           
  5533                           ; BSR set to: 0
  5534                           ;incstack = 0
  5535  000018  803F               	bsf	btemp,0,c	;set compiler interrupt flag (level 1)
  5536  00001A  CFD8 F00F          	movff	status,??_ISR_Bassa+2
  5537  00001E  CFE8 F010          	movff	wreg,??_ISR_Bassa+3
  5538  000022  CFE0 F011          	movff	bsr,??_ISR_Bassa+4
  5539  000026  CFFA F012          	movff	pclath,??_ISR_Bassa+5
  5540  00002A  CFFB F013          	movff	pclatu,??_ISR_Bassa+6
  5541  00002E  CFE9 F014          	movff	fsr0l,??_ISR_Bassa+7
  5542  000032  CFEA F015          	movff	fsr0h,??_ISR_Bassa+8
  5543  000036  CFE1 F016          	movff	fsr1l,??_ISR_Bassa+9
  5544  00003A  CFE2 F017          	movff	fsr1h,??_ISR_Bassa+10
  5545  00003E  CFD9 F018          	movff	fsr2l,??_ISR_Bassa+11
  5546  000042  CFDA F019          	movff	fsr2h,??_ISR_Bassa+12
  5547  000046  CFF3 F01A          	movff	prodl,??_ISR_Bassa+13
  5548  00004A  CFF4 F01B          	movff	prodh,??_ISR_Bassa+14
  5549  00004E  CFF6 F01C          	movff	tblptrl,??_ISR_Bassa+15
  5550  000052  CFF7 F01D          	movff	tblptrh,??_ISR_Bassa+16
  5551  000056  CFF8 F01E          	movff	tblptru,??_ISR_Bassa+17
  5552  00005A  CFF5 F01F          	movff	tablat,??_ISR_Bassa+18
  5553                           
  5554                           ;parcheggio.c: 56: if ((PIR3bits.RXB0IF == 1) || (PIR3bits.RXB1IF == 1)) {
  5555  00005E  A0A4               	btfss	4004,0,c	;volatile
  5556  000060  B2A4               	btfsc	4004,1,c	;volatile
  5557  000062  D001               	goto	i1l3290
  5558  000064  D03E               	goto	i1l3312
  5559  000066                     i1l3290:
  5560                           
  5561                           ;parcheggio.c: 57: if (CANisRxReady()) {
  5562  000066  ECBE  F010         	call	_CANisRxReady	;wreg free
  5563  00006A  0900               	iorlw	0
  5564  00006C  B4D8               	btfsc	status,2,c
  5565  00006E  D037               	goto	i1l3308
  5566                           
  5567                           ;parcheggio.c: 58: CANreceiveMessage(&msg);
  5568  000070  0E9E               	movlw	low _msg
  5569  000072  6E01               	movwf	CANreceiveMessage@msg,c
  5570  000074  0E00               	movlw	high _msg
  5571  000076  6E02               	movwf	CANreceiveMessage@msg+1,c
  5572  000078  EC06  F00A         	call	_CANreceiveMessage	;wreg free
  5573                           
  5574                           ;parcheggio.c: 59: if (msg.identifier == 0b00000001010) {
  5575  00007C  0E0A               	movlw	10
  5576  00007E  0100               	movlb	0	; () banked
  5577  000080  199E               	xorwf	_msg& (0+255),w,b
  5578  000082  0100               	movlb	0	; () banked
  5579  000084  119F               	iorwf	(_msg+1)& (0+255),w,b
  5580  000086  0100               	movlb	0	; () banked
  5581  000088  11A0               	iorwf	(_msg+2)& (0+255),w,b
  5582  00008A  0100               	movlb	0	; () banked
  5583  00008C  11A1               	iorwf	(_msg+3)& (0+255),w,b
  5584  00008E  A4D8               	btfss	status,2,c
  5585  000090  D007               	goto	i1l3300
  5586                           
  5587                           ; BSR set to: 0
  5588                           ;parcheggio.c: 60: if (msg.data[0] == 1) {
  5589  000092  0100               	movlb	0	; () banked
  5590  000094  05A2               	decf	(_msg+4)& (0+255),w,b
  5591  000096  A4D8               	btfss	status,2,c
  5592  000098  D002               	goto	i1l600
  5593                           
  5594                           ; BSR set to: 0
  5595                           ;parcheggio.c: 61: activation = 1;
  5596  00009A  803D               	bsf	_activation/(0+8),_activation& (0+7),c
  5597                           
  5598                           ;parcheggio.c: 62: } else {
  5599  00009C  D001               	goto	i1l3300
  5600  00009E                     i1l600:
  5601                           
  5602                           ; BSR set to: 0
  5603                           ;parcheggio.c: 63: activation = 0;
  5604  00009E  903D               	bcf	_activation/(0+8),_activation& (0+7),c
  5605  0000A0                     i1l3300:
  5606                           
  5607                           ; BSR set to: 0
  5608                           ;parcheggio.c: 64: }
  5609                           ;parcheggio.c: 65: }
  5610                           ;parcheggio.c: 66: if (msg.identifier == 0b00000000111) {
  5611  0000A0  0E07               	movlw	7
  5612  0000A2  0100               	movlb	0	; () banked
  5613  0000A4  199E               	xorwf	_msg& (0+255),w,b
  5614  0000A6  0100               	movlb	0	; () banked
  5615  0000A8  119F               	iorwf	(_msg+1)& (0+255),w,b
  5616  0000AA  0100               	movlb	0	; () banked
  5617  0000AC  11A0               	iorwf	(_msg+2)& (0+255),w,b
  5618  0000AE  0100               	movlb	0	; () banked
  5619  0000B0  11A1               	iorwf	(_msg+3)& (0+255),w,b
  5620  0000B2  A4D8               	btfss	status,2,c
  5621  0000B4  D014               	goto	i1l3308
  5622                           
  5623                           ; BSR set to: 0
  5624                           ;parcheggio.c: 67: distance_dx = msg.data[1];
  5625  0000B6  C0A3  F030         	movff	_msg+5,_distance_dx
  5626  0000BA  6A31               	clrf	_distance_dx+1,c
  5627                           
  5628                           ; BSR set to: 0
  5629                           ;parcheggio.c: 68: distance_dx = ((distance_dx << 8) | msg.data[0]);
  5630  0000BC  5030               	movf	_distance_dx,w,c
  5631  0000BE  6E0D               	movwf	??_ISR_Bassa& (0+255),c
  5632  0000C0  0100               	movlb	0	; () banked
  5633  0000C2  51A2               	movf	(_msg+4)& (0+255),w,b
  5634  0000C4  6E30               	movwf	_distance_dx,c
  5635  0000C6  C00D  F031         	movff	??_ISR_Bassa,_distance_dx+1
  5636                           
  5637                           ; BSR set to: 0
  5638                           ;parcheggio.c: 69: distance_sx = msg.data[3];
  5639  0000CA  C0A5  F032         	movff	_msg+7,_distance_sx
  5640  0000CE  6A33               	clrf	_distance_sx+1,c
  5641                           
  5642                           ;parcheggio.c: 70: distance_sx = ((distance_dx << 8) | msg.data[2]);
  5643  0000D0  5030               	movf	_distance_dx,w,c
  5644  0000D2  6E0D               	movwf	??_ISR_Bassa& (0+255),c
  5645  0000D4  0100               	movlb	0	; () banked
  5646  0000D6  51A4               	movf	(_msg+6)& (0+255),w,b
  5647  0000D8  6E32               	movwf	_distance_sx,c
  5648  0000DA  C00D  F033         	movff	??_ISR_Bassa,_distance_sx+1
  5649  0000DE                     i1l3308:
  5650                           
  5651                           ;parcheggio.c: 71: }
  5652                           ;parcheggio.c: 73: }
  5653                           ;parcheggio.c: 74: PIR3bits.RXB0IF == 0;
  5654  0000DE  50A4               	movf	4004,w,c	;volatile
  5655                           
  5656                           ;parcheggio.c: 75: PIR3bits.RXB1IF == 0;
  5657  0000E0  50A4               	movf	4004,w,c	;volatile
  5658  0000E2                     i1l3312:
  5659                           
  5660                           ;parcheggio.c: 76: }
  5661                           ;parcheggio.c: 78: if (INTCONbits.TMR0IF == 1) {
  5662  0000E2  A4F2               	btfss	intcon,2,c	;volatile
  5663  0000E4  D024               	goto	i1l605
  5664                           
  5665                           ;parcheggio.c: 79: INTCONbits.INT0IE = 0;
  5666  0000E6  98F2               	bcf	intcon,4,c	;volatile
  5667                           
  5668                           ;parcheggio.c: 80: TMR0H = 0x34;
  5669  0000E8  0E34               	movlw	52
  5670  0000EA  6ED7               	movwf	4055,c	;volatile
  5671                           
  5672                           ;parcheggio.c: 81: TMR0L = 0xE0;
  5673  0000EC  0EE0               	movlw	224
  5674  0000EE  6ED6               	movwf	4054,c	;volatile
  5675                           
  5676                           ;parcheggio.c: 82: MUX_index++;
  5677  0000F0  2A3A               	incf	_MUX_index,f,c	;volatile
  5678                           
  5679                           ;parcheggio.c: 83: if (MUX_index ==8){
  5680  0000F2  0E08               	movlw	8
  5681  0000F4  183A               	xorwf	_MUX_index,w,c	;volatile
  5682  0000F6  A4D8               	btfss	status,2,c
  5683  0000F8  D002               	goto	i1l604
  5684                           
  5685                           ;parcheggio.c: 84: MUX_index = 0;
  5686  0000FA  0E00               	movlw	0
  5687  0000FC  6E3A               	movwf	_MUX_index,c	;volatile
  5688  0000FE                     i1l604:
  5689                           
  5690                           ;parcheggio.c: 85: }
  5691                           ;parcheggio.c: 86: unsigned char gigi = 0;
  5692  0000FE  0E00               	movlw	0
  5693  000100  6E20               	movwf	ISR_Bassa@gigi,c
  5694                           
  5695                           ;parcheggio.c: 87: gigi = MUX_select[MUX_index];
  5696  000102  503A               	movf	_MUX_index,w,c	;volatile
  5697  000104  0D01               	mullw	1
  5698  000106  0E24               	movlw	low _MUX_select
  5699  000108  24F3               	addwf	prodl,w,c
  5700  00010A  6ED9               	movwf	fsr2l,c
  5701  00010C  0E00               	movlw	high _MUX_select
  5702  00010E  20F4               	addwfc	prodh,w,c
  5703  000110  6EDA               	movwf	fsr2h,c
  5704  000112  50DF               	movf	indf2,w,c
  5705  000114  6E20               	movwf	ISR_Bassa@gigi,c
  5706                           
  5707                           ;parcheggio.c: 88: PORTA = gigi;
  5708  000116  C020  FF80         	movff	ISR_Bassa@gigi,3968	;volatile
  5709                           
  5710                           ;parcheggio.c: 93: TRISBbits.RB0 = 0;
  5711  00011A  9093               	bcf	3987,0,c	;volatile
  5712                           
  5713                           ;parcheggio.c: 94: LATBbits.LATB0 = 1;
  5714  00011C  808A               	bsf	3978,0,c	;volatile
  5715                           
  5716                           ;parcheggio.c: 95: _delay((unsigned long)((15)*(16000000/4000000.0)));
  5717  00011E  0E14               	movlw	20
  5718  000120                     i1u383_27:
  5719  000120  2EE8               	decfsz	wreg,f,c
  5720  000122  D7FE               	goto	i1u383_27
  5721                           
  5722                           ;parcheggio.c: 96: LATBbits.LATB0 = 0;
  5723  000124  908A               	bcf	3978,0,c	;volatile
  5724                           
  5725                           ;parcheggio.c: 97: TRISBbits.RB0 = 1;
  5726  000126  8093               	bsf	3987,0,c	;volatile
  5727                           
  5728                           ;parcheggio.c: 98: INTCONbits.INT0IF = 0;
  5729  000128  92F2               	bcf	intcon,1,c	;volatile
  5730                           
  5731                           ;parcheggio.c: 99: INTCONbits.INT0IE = 1;
  5732  00012A  88F2               	bsf	intcon,4,c	;volatile
  5733                           
  5734                           ;parcheggio.c: 100: INTCONbits.TMR0IF = 0;
  5735  00012C  94F2               	bcf	intcon,2,c	;volatile
  5736  00012E                     i1l605:
  5737  00012E  C01F  FFF5         	movff	??_ISR_Bassa+18,tablat
  5738  000132  C01E  FFF8         	movff	??_ISR_Bassa+17,tblptru
  5739  000136  C01D  FFF7         	movff	??_ISR_Bassa+16,tblptrh
  5740  00013A  C01C  FFF6         	movff	??_ISR_Bassa+15,tblptrl
  5741  00013E  C01B  FFF4         	movff	??_ISR_Bassa+14,prodh
  5742  000142  C01A  FFF3         	movff	??_ISR_Bassa+13,prodl
  5743  000146  C019  FFDA         	movff	??_ISR_Bassa+12,fsr2h
  5744  00014A  C018  FFD9         	movff	??_ISR_Bassa+11,fsr2l
  5745  00014E  C017  FFE2         	movff	??_ISR_Bassa+10,fsr1h
  5746  000152  C016  FFE1         	movff	??_ISR_Bassa+9,fsr1l
  5747  000156  C015  FFEA         	movff	??_ISR_Bassa+8,fsr0h
  5748  00015A  C014  FFE9         	movff	??_ISR_Bassa+7,fsr0l
  5749  00015E  C013  FFFB         	movff	??_ISR_Bassa+6,pclatu
  5750  000162  C012  FFFA         	movff	??_ISR_Bassa+5,pclath
  5751  000166  C011  FFE0         	movff	??_ISR_Bassa+4,bsr
  5752  00016A  C010  FFE8         	movff	??_ISR_Bassa+3,wreg
  5753  00016E  C00F  FFD8         	movff	??_ISR_Bassa+2,status
  5754  000172  903F               	bcf	btemp,0,c	;clear compiler interrupt flag (level 1)
  5755  000174  0010               	retfie	
  5756  000176                     __end_of_ISR_Bassa:
  5757                           	opt stack 0
  5758                           pclatu	equ	0xFFB
  5759                           pclath	equ	0xFFA
  5760                           tblptru	equ	0xFF8
  5761                           tblptrh	equ	0xFF7
  5762                           tblptrl	equ	0xFF6
  5763                           tablat	equ	0xFF5
  5764                           prodh	equ	0xFF4
  5765                           prodl	equ	0xFF3
  5766                           intcon	equ	0xFF2
  5767                           intcon2	equ	0xFF1
  5768                           postinc0	equ	0xFEE
  5769                           fsr0h	equ	0xFEA
  5770                           fsr0l	equ	0xFE9
  5771                           wreg	equ	0xFE8
  5772                           fsr1h	equ	0xFE2
  5773                           fsr1l	equ	0xFE1
  5774                           bsr	equ	0xFE0
  5775                           indf2	equ	0xFDF
  5776                           fsr2h	equ	0xFDA
  5777                           fsr2l	equ	0xFD9
  5778                           status	equ	0xFD8
  5779                           
  5780 ;; *************** function _CANreceiveMessage *****************
  5781 ;; Defined at:
  5782 ;;		line 529 in file "../../LaurTec_PIC_libraries_v_3.3.0/inc\CANlib.h"
  5783 ;; Parameters:    Size  Location     Type
  5784 ;;  msg             2    0[COMRAM] PTR struct .
  5785 ;;		 -> msg(15), 
  5786 ;; Auto vars:     Size  Location     Type
  5787 ;;  tamp            1   11[COMRAM] unsigned char 
  5788 ;;  error           1   10[COMRAM] unsigned char 
  5789 ;; Return value:  Size  Location     Type
  5790 ;;                  1    wreg      unsigned char 
  5791 ;; Registers used:
  5792 ;;		wreg, fsr2l, fsr2h, status,2, status,0
  5793 ;; Tracked objects:
  5794 ;;		On entry : 0/0
  5795 ;;		On exit  : 0/0
  5796 ;;		Unchanged: 0/0
  5797 ;; Data sizes:     COMRAM   BANK0   BANK1   BANK2   BANK3   BANK4   BANK5   BANK6   BANK7   BANK8   BANK9  BANK10  BANK1
      +1  BANK12
  5798 ;;      Params:         2       0       0       0       0       0       0       0       0       0       0       0       
      +0       0
  5799 ;;      Locals:         2       0       0       0       0       0       0       0       0       0       0       0       
      +0       0
  5800 ;;      Temps:          8       0       0       0       0       0       0       0       0       0       0       0       
      +0       0
  5801 ;;      Totals:        12       0       0       0       0       0       0       0       0       0       0       0       
      +0       0
  5802 ;;Total ram usage:       12 bytes
  5803 ;; Hardware stack levels used:    1
  5804 ;; Hardware stack levels required when called:    2
  5805 ;; This function calls:
  5806 ;;		Nothing
  5807 ;; This function is called by:
  5808 ;;		_ISR_Bassa
  5809 ;; This function uses a non-reentrant model
  5810 ;;
  5811                           
  5812                           	psect	text9
  5813  00140C                     __ptext9:
  5814                           	opt stack 0
  5815  00140C                     _CANreceiveMessage:
  5816                           	opt stack 24
  5817                           
  5818                           ;inc\CANlib.h: 531: BYTE tamp;
  5819                           ;inc\CANlib.h: 532: BYTE error = 0;
  5820                           
  5821                           ;incstack = 0
  5822  00140C  0E00               	movlw	0
  5823  00140E  6E0B               	movwf	CANreceiveMessage@error,c
  5824                           
  5825                           ;inc\CANlib.h: 534: if (COMSTATbits.RXB0OVFL == 0x01)
  5826  001410  BE74               	btfsc	3956,7,c	;volatile
  5827                           
  5828                           ;inc\CANlib.h: 535: error |= CAN_RX_BUFFER_1_OVFL;
  5829  001412  800B               	bsf	CANreceiveMessage@error,0,c
  5830                           
  5831                           ;inc\CANlib.h: 537: if (COMSTATbits.RXB1OVFL == 0x01)
  5832  001414  BC74               	btfsc	3956,6,c	;volatile
  5833                           
  5834                           ;inc\CANlib.h: 538: error |= CAN_RX_BUFFER_2_OVFL;
  5835  001416  820B               	bsf	CANreceiveMessage@error,1,c
  5836                           
  5837                           ;inc\CANlib.h: 541: if (RXB1CONbits.RXFUL ==0x01)
  5838  001418  010F               	movlb	15	; () banked
  5839  00141A  AF50               	btfss	80,7,b	;volatile
  5840  00141C  D143               	goto	i1l386
  5841                           
  5842                           ; BSR set to: 15
  5843                           ;inc\CANlib.h: 542: {
  5844                           ;inc\CANlib.h: 543: msg->identifier = 0;
  5845  00141E  C001  FFD9         	movff	CANreceiveMessage@msg,fsr2l
  5846  001422  C002  FFDA         	movff	CANreceiveMessage@msg+1,fsr2h
  5847  001426  6ADE               	clrf	postinc2,c
  5848  001428  6ADE               	clrf	postinc2,c
  5849  00142A  6ADE               	clrf	postinc2,c
  5850  00142C  6ADD               	clrf	postdec2,c
  5851                           
  5852                           ; BSR set to: 15
  5853                           ;inc\CANlib.h: 544: msg->data[0] =RXB1D0;
  5854  00142E  EE20 F004          	lfsr	2,4
  5855  001432  5001               	movf	CANreceiveMessage@msg,w,c
  5856  001434  26D9               	addwf	fsr2l,f,c
  5857  001436  5002               	movf	CANreceiveMessage@msg+1,w,c
  5858  001438  22DA               	addwfc	fsr2h,f,c
  5859  00143A  CF56 FFDF          	movff	3926,indf2	;volatile
  5860                           
  5861                           ; BSR set to: 15
  5862                           ;inc\CANlib.h: 545: msg->data[1] =RXB1D1;
  5863  00143E  EE20 F005          	lfsr	2,5
  5864  001442  5001               	movf	CANreceiveMessage@msg,w,c
  5865  001444  26D9               	addwf	fsr2l,f,c
  5866  001446  5002               	movf	CANreceiveMessage@msg+1,w,c
  5867  001448  22DA               	addwfc	fsr2h,f,c
  5868  00144A  CF57 FFDF          	movff	3927,indf2	;volatile
  5869                           
  5870                           ; BSR set to: 15
  5871                           ;inc\CANlib.h: 546: msg->data[2] =RXB1D2;
  5872  00144E  EE20 F006          	lfsr	2,6
  5873  001452  5001               	movf	CANreceiveMessage@msg,w,c
  5874  001454  26D9               	addwf	fsr2l,f,c
  5875  001456  5002               	movf	CANreceiveMessage@msg+1,w,c
  5876  001458  22DA               	addwfc	fsr2h,f,c
  5877  00145A  CF58 FFDF          	movff	3928,indf2	;volatile
  5878                           
  5879                           ; BSR set to: 15
  5880                           ;inc\CANlib.h: 547: msg->data[3] =RXB1D3;
  5881  00145E  EE20 F007          	lfsr	2,7
  5882  001462  5001               	movf	CANreceiveMessage@msg,w,c
  5883  001464  26D9               	addwf	fsr2l,f,c
  5884  001466  5002               	movf	CANreceiveMessage@msg+1,w,c
  5885  001468  22DA               	addwfc	fsr2h,f,c
  5886  00146A  CF59 FFDF          	movff	3929,indf2	;volatile
  5887                           
  5888                           ; BSR set to: 15
  5889                           ;inc\CANlib.h: 548: msg->data[4] =RXB1D4;
  5890  00146E  EE20 F008          	lfsr	2,8
  5891  001472  5001               	movf	CANreceiveMessage@msg,w,c
  5892  001474  26D9               	addwf	fsr2l,f,c
  5893  001476  5002               	movf	CANreceiveMessage@msg+1,w,c
  5894  001478  22DA               	addwfc	fsr2h,f,c
  5895  00147A  CF5A FFDF          	movff	3930,indf2	;volatile
  5896                           
  5897                           ; BSR set to: 15
  5898                           ;inc\CANlib.h: 549: msg->data[5] =RXB1D5;
  5899  00147E  EE20 F009          	lfsr	2,9
  5900  001482  5001               	movf	CANreceiveMessage@msg,w,c
  5901  001484  26D9               	addwf	fsr2l,f,c
  5902  001486  5002               	movf	CANreceiveMessage@msg+1,w,c
  5903  001488  22DA               	addwfc	fsr2h,f,c
  5904  00148A  CF5B FFDF          	movff	3931,indf2	;volatile
  5905                           
  5906                           ; BSR set to: 15
  5907                           ;inc\CANlib.h: 550: msg->data[6] =RXB1D6;
  5908  00148E  EE20 F00A          	lfsr	2,10
  5909  001492  5001               	movf	CANreceiveMessage@msg,w,c
  5910  001494  26D9               	addwf	fsr2l,f,c
  5911  001496  5002               	movf	CANreceiveMessage@msg+1,w,c
  5912  001498  22DA               	addwfc	fsr2h,f,c
  5913  00149A  CF5C FFDF          	movff	3932,indf2	;volatile
  5914                           
  5915                           ; BSR set to: 15
  5916                           ;inc\CANlib.h: 551: msg->data[7] =RXB1D7;
  5917  00149E  EE20 F00B          	lfsr	2,11
  5918  0014A2  5001               	movf	CANreceiveMessage@msg,w,c
  5919  0014A4  26D9               	addwf	fsr2l,f,c
  5920  0014A6  5002               	movf	CANreceiveMessage@msg+1,w,c
  5921  0014A8  22DA               	addwfc	fsr2h,f,c
  5922  0014AA  CF5D FFDF          	movff	3933,indf2	;volatile
  5923                           
  5924                           ; BSR set to: 15
  5925                           ;inc\CANlib.h: 553: msg->RTR = RXB1DLCbits.RXRTR;
  5926  0014AE  EE20 F00E          	lfsr	2,14
  5927  0014B2  5001               	movf	CANreceiveMessage@msg,w,c
  5928  0014B4  26D9               	addwf	fsr2l,f,c
  5929  0014B6  5002               	movf	CANreceiveMessage@msg+1,w,c
  5930  0014B8  22DA               	addwfc	fsr2h,f,c
  5931  0014BA  010F               	movlb	15	; () banked
  5932  0014BC  AD55               	btfss	85,6,b	;volatile
  5933  0014BE  D002               	goto	i1u334_20
  5934  0014C0  0E01               	movlw	1
  5935  0014C2  D001               	goto	i1u334_26
  5936  0014C4                     i1u334_20:
  5937  0014C4  0E00               	movlw	0
  5938  0014C6                     i1u334_26:
  5939  0014C6  6EDF               	movwf	indf2,c
  5940                           
  5941                           ; BSR set to: 15
  5942                           ;inc\CANlib.h: 555: msg->length = RXB1DLC & 0x0F;
  5943  0014C8  EE20 F00D          	lfsr	2,13
  5944  0014CC  5001               	movf	CANreceiveMessage@msg,w,c
  5945  0014CE  26D9               	addwf	fsr2l,f,c
  5946  0014D0  5002               	movf	CANreceiveMessage@msg+1,w,c
  5947  0014D2  22DA               	addwfc	fsr2h,f,c
  5948  0014D4  010F               	movlb	15	; () banked
  5949  0014D6  5155               	movf	85,w,b	;volatile
  5950  0014D8  0B0F               	andlw	15
  5951  0014DA  6EDF               	movwf	indf2,c
  5952                           
  5953                           ; BSR set to: 15
  5954                           ;inc\CANlib.h: 557: msg->type = RXB1SIDLbits.EXID;
  5955  0014DC  EE20 F00C          	lfsr	2,12
  5956  0014E0  5001               	movf	CANreceiveMessage@msg,w,c
  5957  0014E2  26D9               	addwf	fsr2l,f,c
  5958  0014E4  5002               	movf	CANreceiveMessage@msg+1,w,c
  5959  0014E6  22DA               	addwfc	fsr2h,f,c
  5960  0014E8  010F               	movlb	15	; () banked
  5961  0014EA  A752               	btfss	82,3,b	;volatile
  5962  0014EC  D002               	goto	i1u335_20
  5963  0014EE  0E01               	movlw	1
  5964  0014F0  D001               	goto	i1u335_26
  5965  0014F2                     i1u335_20:
  5966  0014F2  0E00               	movlw	0
  5967  0014F4                     i1u335_26:
  5968  0014F4  6EDF               	movwf	indf2,c
  5969                           
  5970                           ; BSR set to: 15
  5971                           ;inc\CANlib.h: 559: if (RXB1SIDLbits.EXID == 0)
  5972  0014F6  010F               	movlb	15	; () banked
  5973  0014F8  B752               	btfsc	82,3,b	;volatile
  5974  0014FA  D044               	goto	i1l3092
  5975                           
  5976                           ; BSR set to: 15
  5977                           ;inc\CANlib.h: 560: {
  5978                           ;inc\CANlib.h: 561: msg->identifier = ((unsigned long)RXB1SIDH)<< 3;
  5979  0014FC  CF51 F003          	movff	3921,??_CANreceiveMessage	;volatile
  5980  001500  6A04               	clrf	(??_CANreceiveMessage+1)& (0+255),c
  5981  001502  6A05               	clrf	(??_CANreceiveMessage+2)& (0+255),c
  5982  001504  6A06               	clrf	(??_CANreceiveMessage+3)& (0+255),c
  5983  001506  0E03               	movlw	3
  5984  001508                     i1u337_25:
  5985  001508  90D8               	bcf	status,0,c
  5986  00150A  3603               	rlcf	??_CANreceiveMessage,f,c
  5987  00150C  3604               	rlcf	??_CANreceiveMessage+1,f,c
  5988  00150E  3605               	rlcf	??_CANreceiveMessage+2,f,c
  5989  001510  3606               	rlcf	??_CANreceiveMessage+3,f,c
  5990  001512  2EE8               	decfsz	wreg,f,c
  5991  001514  D7F9               	goto	i1u337_25
  5992  001516  C001  FFD9         	movff	CANreceiveMessage@msg,fsr2l
  5993  00151A  C002  FFDA         	movff	CANreceiveMessage@msg+1,fsr2h
  5994  00151E  C003  FFDE         	movff	??_CANreceiveMessage,postinc2
  5995  001522  C004  FFDE         	movff	??_CANreceiveMessage+1,postinc2
  5996  001526  C005  FFDE         	movff	??_CANreceiveMessage+2,postinc2
  5997  00152A  C006  FFDE         	movff	??_CANreceiveMessage+3,postinc2
  5998                           
  5999                           ; BSR set to: 15
  6000                           ;inc\CANlib.h: 562: tamp = (RXB1SIDL >> 5 ) & 0x07;
  6001  00152E  010F               	movlb	15	; () banked
  6002  001530  3952               	swapf	82,w,b	;volatile
  6003  001532  42E8               	rrncf	wreg,f,c
  6004  001534  0B07               	andlw	7
  6005  001536  0B07               	andlw	7
  6006  001538  6E0C               	movwf	CANreceiveMessage@tamp,c
  6007                           
  6008                           ; BSR set to: 15
  6009                           ;inc\CANlib.h: 563: msg->identifier = msg->identifier + tamp;
  6010  00153A  C001  FFD9         	movff	CANreceiveMessage@msg,fsr2l
  6011  00153E  C002  FFDA         	movff	CANreceiveMessage@msg+1,fsr2h
  6012  001542  CFDE F003          	movff	postinc2,??_CANreceiveMessage
  6013  001546  CFDE F004          	movff	postinc2,??_CANreceiveMessage+1
  6014  00154A  CFDE F005          	movff	postinc2,??_CANreceiveMessage+2
  6015  00154E  CFDE F006          	movff	postinc2,??_CANreceiveMessage+3
  6016  001552  500C               	movf	CANreceiveMessage@tamp,w,c
  6017  001554  2403               	addwf	??_CANreceiveMessage,w,c
  6018  001556  6E07               	movwf	(??_CANreceiveMessage+4)& (0+255),c
  6019  001558  0E00               	movlw	0
  6020  00155A  2004               	addwfc	??_CANreceiveMessage+1,w,c
  6021  00155C  6E08               	movwf	(??_CANreceiveMessage+5)& (0+255),c
  6022  00155E  0E00               	movlw	0
  6023  001560  2005               	addwfc	??_CANreceiveMessage+2,w,c
  6024  001562  6E09               	movwf	(??_CANreceiveMessage+6)& (0+255),c
  6025  001564  0E00               	movlw	0
  6026  001566  2006               	addwfc	??_CANreceiveMessage+3,w,c
  6027  001568  6E0A               	movwf	(??_CANreceiveMessage+7)& (0+255),c
  6028  00156A  C001  FFD9         	movff	CANreceiveMessage@msg,fsr2l
  6029  00156E  C002  FFDA         	movff	CANreceiveMessage@msg+1,fsr2h
  6030  001572  C007  FFDE         	movff	??_CANreceiveMessage+4,postinc2
  6031  001576  C008  FFDE         	movff	??_CANreceiveMessage+5,postinc2
  6032  00157A  C009  FFDE         	movff	??_CANreceiveMessage+6,postinc2
  6033  00157E  C00A  FFDE         	movff	??_CANreceiveMessage+7,postinc2
  6034                           
  6035                           ;inc\CANlib.h: 564: }
  6036  001582  D08D               	goto	i1l3118
  6037  001584                     i1l3092:
  6038                           
  6039                           ; BSR set to: 15
  6040                           ;inc\CANlib.h: 565: else
  6041                           ;inc\CANlib.h: 566: {
  6042                           ;inc\CANlib.h: 567: msg->identifier = (unsigned long) RXB1EIDL;
  6043  001584  CF54 F003          	movff	3924,??_CANreceiveMessage	;volatile
  6044  001588  6A04               	clrf	(??_CANreceiveMessage+1)& (0+255),c
  6045  00158A  6A05               	clrf	(??_CANreceiveMessage+2)& (0+255),c
  6046  00158C  6A06               	clrf	(??_CANreceiveMessage+3)& (0+255),c
  6047  00158E  C001  FFD9         	movff	CANreceiveMessage@msg,fsr2l
  6048  001592  C002  FFDA         	movff	CANreceiveMessage@msg+1,fsr2h
  6049  001596  C003  FFDE         	movff	??_CANreceiveMessage,postinc2
  6050  00159A  C004  FFDE         	movff	??_CANreceiveMessage+1,postinc2
  6051  00159E  C005  FFDE         	movff	??_CANreceiveMessage+2,postinc2
  6052  0015A2  C006  FFDE         	movff	??_CANreceiveMessage+3,postinc2
  6053                           
  6054                           ; BSR set to: 15
  6055                           ;inc\CANlib.h: 568: msg->identifier += ((unsigned long) RXB1EIDH) << 8;
  6056  0015A6  CF53 F003          	movff	3923,??_CANreceiveMessage	;volatile
  6057  0015AA  6A04               	clrf	(??_CANreceiveMessage+1)& (0+255),c
  6058  0015AC  6A05               	clrf	(??_CANreceiveMessage+2)& (0+255),c
  6059  0015AE  6A06               	clrf	(??_CANreceiveMessage+3)& (0+255),c
  6060  0015B0  C005  F006         	movff	??_CANreceiveMessage+2,??_CANreceiveMessage+3
  6061  0015B4  C004  F005         	movff	??_CANreceiveMessage+1,??_CANreceiveMessage+2
  6062  0015B8  C003  F004         	movff	??_CANreceiveMessage,??_CANreceiveMessage+1
  6063  0015BC  6A03               	clrf	??_CANreceiveMessage,c
  6064  0015BE  C001  FFD9         	movff	CANreceiveMessage@msg,fsr2l
  6065  0015C2  C002  FFDA         	movff	CANreceiveMessage@msg+1,fsr2h
  6066  0015C6  5003               	movf	??_CANreceiveMessage,w,c
  6067  0015C8  26DE               	addwf	postinc2,f,c
  6068  0015CA  5004               	movf	??_CANreceiveMessage+1,w,c
  6069  0015CC  22DE               	addwfc	postinc2,f,c
  6070  0015CE  5005               	movf	??_CANreceiveMessage+2,w,c
  6071  0015D0  22DE               	addwfc	postinc2,f,c
  6072  0015D2  5006               	movf	??_CANreceiveMessage+3,w,c
  6073  0015D4  22DE               	addwfc	postinc2,f,c
  6074                           
  6075                           ; BSR set to: 15
  6076                           ;inc\CANlib.h: 570: if (RXB1SIDLbits.EID16)
  6077  0015D6  010F               	movlb	15	; () banked
  6078  0015D8  A152               	btfss	82,0,b	;volatile
  6079  0015DA  D00C               	goto	i1l3100
  6080                           
  6081                           ; BSR set to: 15
  6082                           ;inc\CANlib.h: 571: msg->identifier |= 0x00010000;
  6083  0015DC  C001  FFD9         	movff	CANreceiveMessage@msg,fsr2l
  6084  0015E0  C002  FFDA         	movff	CANreceiveMessage@msg+1,fsr2h
  6085  0015E4  0E00               	movlw	0
  6086  0015E6  12DE               	iorwf	postinc2,f,c
  6087  0015E8  0E00               	movlw	0
  6088  0015EA  12DE               	iorwf	postinc2,f,c
  6089  0015EC  0E01               	movlw	1
  6090  0015EE  12DE               	iorwf	postinc2,f,c
  6091  0015F0  0E00               	movlw	0
  6092  0015F2  12DE               	iorwf	postinc2,f,c
  6093  0015F4                     i1l3100:
  6094                           
  6095                           ; BSR set to: 15
  6096                           ;inc\CANlib.h: 572: if (RXB1SIDLbits.EID17)
  6097  0015F4  010F               	movlb	15	; () banked
  6098  0015F6  A352               	btfss	82,1,b	;volatile
  6099  0015F8  D00C               	goto	i1l3104
  6100                           
  6101                           ; BSR set to: 15
  6102                           ;inc\CANlib.h: 573: msg->identifier |= 0x00020000;
  6103  0015FA  C001  FFD9         	movff	CANreceiveMessage@msg,fsr2l
  6104  0015FE  C002  FFDA         	movff	CANreceiveMessage@msg+1,fsr2h
  6105  001602  0E00               	movlw	0
  6106  001604  12DE               	iorwf	postinc2,f,c
  6107  001606  0E00               	movlw	0
  6108  001608  12DE               	iorwf	postinc2,f,c
  6109  00160A  0E02               	movlw	2
  6110  00160C  12DE               	iorwf	postinc2,f,c
  6111  00160E  0E00               	movlw	0
  6112  001610  12DE               	iorwf	postinc2,f,c
  6113  001612                     i1l3104:
  6114                           
  6115                           ; BSR set to: 15
  6116                           ;inc\CANlib.h: 574: if (RXB1SIDLbits.SID0)
  6117  001612  010F               	movlb	15	; () banked
  6118  001614  AB52               	btfss	82,5,b	;volatile
  6119  001616  D00C               	goto	i1l3108
  6120                           
  6121                           ; BSR set to: 15
  6122                           ;inc\CANlib.h: 575: msg->identifier |= 0x00040000;
  6123  001618  C001  FFD9         	movff	CANreceiveMessage@msg,fsr2l
  6124  00161C  C002  FFDA         	movff	CANreceiveMessage@msg+1,fsr2h
  6125  001620  0E00               	movlw	0
  6126  001622  12DE               	iorwf	postinc2,f,c
  6127  001624  0E00               	movlw	0
  6128  001626  12DE               	iorwf	postinc2,f,c
  6129  001628  0E04               	movlw	4
  6130  00162A  12DE               	iorwf	postinc2,f,c
  6131  00162C  0E00               	movlw	0
  6132  00162E  12DE               	iorwf	postinc2,f,c
  6133  001630                     i1l3108:
  6134                           
  6135                           ; BSR set to: 15
  6136                           ;inc\CANlib.h: 576: if (RXB1SIDLbits.SID1)
  6137  001630  010F               	movlb	15	; () banked
  6138  001632  AD52               	btfss	82,6,b	;volatile
  6139  001634  D00C               	goto	i1l3112
  6140                           
  6141                           ; BSR set to: 15
  6142                           ;inc\CANlib.h: 577: msg->identifier |= 0x00080000;
  6143  001636  C001  FFD9         	movff	CANreceiveMessage@msg,fsr2l
  6144  00163A  C002  FFDA         	movff	CANreceiveMessage@msg+1,fsr2h
  6145  00163E  0E00               	movlw	0
  6146  001640  12DE               	iorwf	postinc2,f,c
  6147  001642  0E00               	movlw	0
  6148  001644  12DE               	iorwf	postinc2,f,c
  6149  001646  0E08               	movlw	8
  6150  001648  12DE               	iorwf	postinc2,f,c
  6151  00164A  0E00               	movlw	0
  6152  00164C  12DE               	iorwf	postinc2,f,c
  6153  00164E                     i1l3112:
  6154                           
  6155                           ; BSR set to: 15
  6156                           ;inc\CANlib.h: 578: if (RXB1SIDLbits.SID2)
  6157  00164E  010F               	movlb	15	; () banked
  6158  001650  AF52               	btfss	82,7,b	;volatile
  6159  001652  D00C               	goto	i1l3116
  6160                           
  6161                           ; BSR set to: 15
  6162                           ;inc\CANlib.h: 579: msg->identifier |= 0x00100000;
  6163  001654  C001  FFD9         	movff	CANreceiveMessage@msg,fsr2l
  6164  001658  C002  FFDA         	movff	CANreceiveMessage@msg+1,fsr2h
  6165  00165C  0E00               	movlw	0
  6166  00165E  12DE               	iorwf	postinc2,f,c
  6167  001660  0E00               	movlw	0
  6168  001662  12DE               	iorwf	postinc2,f,c
  6169  001664  0E10               	movlw	16
  6170  001666  12DE               	iorwf	postinc2,f,c
  6171  001668  0E00               	movlw	0
  6172  00166A  12DE               	iorwf	postinc2,f,c
  6173  00166C                     i1l3116:
  6174                           
  6175                           ; BSR set to: 15
  6176                           ;inc\CANlib.h: 581: msg->identifier |= ((unsigned long) RXB1SIDH) << 21;
  6177  00166C  CF51 F003          	movff	3921,??_CANreceiveMessage	;volatile
  6178  001670  6A04               	clrf	(??_CANreceiveMessage+1)& (0+255),c
  6179  001672  6A05               	clrf	(??_CANreceiveMessage+2)& (0+255),c
  6180  001674  6A06               	clrf	(??_CANreceiveMessage+3)& (0+255),c
  6181  001676  0E15               	movlw	21
  6182  001678                     i1u343_25:
  6183  001678  90D8               	bcf	status,0,c
  6184  00167A  3603               	rlcf	??_CANreceiveMessage,f,c
  6185  00167C  3604               	rlcf	??_CANreceiveMessage+1,f,c
  6186  00167E  3605               	rlcf	??_CANreceiveMessage+2,f,c
  6187  001680  3606               	rlcf	??_CANreceiveMessage+3,f,c
  6188  001682  2EE8               	decfsz	wreg,f,c
  6189  001684  D7F9               	goto	i1u343_25
  6190  001686  C001  FFD9         	movff	CANreceiveMessage@msg,fsr2l
  6191  00168A  C002  FFDA         	movff	CANreceiveMessage@msg+1,fsr2h
  6192  00168E  5003               	movf	??_CANreceiveMessage,w,c
  6193  001690  12DE               	iorwf	postinc2,f,c
  6194  001692  5004               	movf	??_CANreceiveMessage+1,w,c
  6195  001694  12DE               	iorwf	postinc2,f,c
  6196  001696  5005               	movf	??_CANreceiveMessage+2,w,c
  6197  001698  12DE               	iorwf	postinc2,f,c
  6198  00169A  5006               	movf	??_CANreceiveMessage+3,w,c
  6199  00169C  12DE               	iorwf	postinc2,f,c
  6200  00169E                     i1l3118:
  6201                           
  6202                           ; BSR set to: 15
  6203                           ;inc\CANlib.h: 582: }
  6204                           ;inc\CANlib.h: 584: RXB1CONbits.RXFUL = 0x00;
  6205  00169E  010F               	movlb	15	; () banked
  6206  0016A0  9F50               	bcf	80,7,b	;volatile
  6207                           
  6208                           ; BSR set to: 15
  6209                           ;inc\CANlib.h: 585: return (error);
  6210                           ;	Return value of _CANreceiveMessage is never used
  6211  0016A2  0012               	return	
  6212  0016A4                     i1l386:
  6213                           
  6214                           ; BSR set to: 15
  6215                           ;inc\CANlib.h: 586: }
  6216                           ;inc\CANlib.h: 588: if (RXB0CONbits.RXFUL ==0x01)
  6217  0016A4  AE60               	btfss	3936,7,c	;volatile
  6218  0016A6  0012               	return	
  6219                           
  6220                           ; BSR set to: 15
  6221                           ;inc\CANlib.h: 589: {
  6222                           ;inc\CANlib.h: 590: msg->identifier = 0;
  6223  0016A8  C001  FFD9         	movff	CANreceiveMessage@msg,fsr2l
  6224  0016AC  C002  FFDA         	movff	CANreceiveMessage@msg+1,fsr2h
  6225  0016B0  6ADE               	clrf	postinc2,c
  6226  0016B2  6ADE               	clrf	postinc2,c
  6227  0016B4  6ADE               	clrf	postinc2,c
  6228  0016B6  6ADD               	clrf	postdec2,c
  6229                           
  6230                           ; BSR set to: 15
  6231                           ;inc\CANlib.h: 591: msg->data[0] =RXB0D0;
  6232  0016B8  EE20 F004          	lfsr	2,4
  6233  0016BC  5001               	movf	CANreceiveMessage@msg,w,c
  6234  0016BE  26D9               	addwf	fsr2l,f,c
  6235  0016C0  5002               	movf	CANreceiveMessage@msg+1,w,c
  6236  0016C2  22DA               	addwfc	fsr2h,f,c
  6237  0016C4  CF66 FFDF          	movff	3942,indf2	;volatile
  6238                           
  6239                           ; BSR set to: 15
  6240                           ;inc\CANlib.h: 592: msg->data[1] =RXB0D1;
  6241  0016C8  EE20 F005          	lfsr	2,5
  6242  0016CC  5001               	movf	CANreceiveMessage@msg,w,c
  6243  0016CE  26D9               	addwf	fsr2l,f,c
  6244  0016D0  5002               	movf	CANreceiveMessage@msg+1,w,c
  6245  0016D2  22DA               	addwfc	fsr2h,f,c
  6246  0016D4  CF67 FFDF          	movff	3943,indf2	;volatile
  6247                           
  6248                           ; BSR set to: 15
  6249                           ;inc\CANlib.h: 593: msg->data[2] =RXB0D2;
  6250  0016D8  EE20 F006          	lfsr	2,6
  6251  0016DC  5001               	movf	CANreceiveMessage@msg,w,c
  6252  0016DE  26D9               	addwf	fsr2l,f,c
  6253  0016E0  5002               	movf	CANreceiveMessage@msg+1,w,c
  6254  0016E2  22DA               	addwfc	fsr2h,f,c
  6255  0016E4  CF68 FFDF          	movff	3944,indf2	;volatile
  6256                           
  6257                           ; BSR set to: 15
  6258                           ;inc\CANlib.h: 594: msg->data[3] =RXB0D3;
  6259  0016E8  EE20 F007          	lfsr	2,7
  6260  0016EC  5001               	movf	CANreceiveMessage@msg,w,c
  6261  0016EE  26D9               	addwf	fsr2l,f,c
  6262  0016F0  5002               	movf	CANreceiveMessage@msg+1,w,c
  6263  0016F2  22DA               	addwfc	fsr2h,f,c
  6264  0016F4  CF69 FFDF          	movff	3945,indf2	;volatile
  6265                           
  6266                           ; BSR set to: 15
  6267                           ;inc\CANlib.h: 595: msg->data[4] =RXB0D4;
  6268  0016F8  EE20 F008          	lfsr	2,8
  6269  0016FC  5001               	movf	CANreceiveMessage@msg,w,c
  6270  0016FE  26D9               	addwf	fsr2l,f,c
  6271  001700  5002               	movf	CANreceiveMessage@msg+1,w,c
  6272  001702  22DA               	addwfc	fsr2h,f,c
  6273  001704  CF6A FFDF          	movff	3946,indf2	;volatile
  6274                           
  6275                           ; BSR set to: 15
  6276                           ;inc\CANlib.h: 596: msg->data[5] =RXB0D5;
  6277  001708  EE20 F009          	lfsr	2,9
  6278  00170C  5001               	movf	CANreceiveMessage@msg,w,c
  6279  00170E  26D9               	addwf	fsr2l,f,c
  6280  001710  5002               	movf	CANreceiveMessage@msg+1,w,c
  6281  001712  22DA               	addwfc	fsr2h,f,c
  6282  001714  CF6B FFDF          	movff	3947,indf2	;volatile
  6283                           
  6284                           ; BSR set to: 15
  6285                           ;inc\CANlib.h: 597: msg->data[6] =RXB0D6;
  6286  001718  EE20 F00A          	lfsr	2,10
  6287  00171C  5001               	movf	CANreceiveMessage@msg,w,c
  6288  00171E  26D9               	addwf	fsr2l,f,c
  6289  001720  5002               	movf	CANreceiveMessage@msg+1,w,c
  6290  001722  22DA               	addwfc	fsr2h,f,c
  6291  001724  CF6C FFDF          	movff	3948,indf2	;volatile
  6292                           
  6293                           ; BSR set to: 15
  6294                           ;inc\CANlib.h: 598: msg->data[7] =RXB0D7;
  6295  001728  EE20 F00B          	lfsr	2,11
  6296  00172C  5001               	movf	CANreceiveMessage@msg,w,c
  6297  00172E  26D9               	addwf	fsr2l,f,c
  6298  001730  5002               	movf	CANreceiveMessage@msg+1,w,c
  6299  001732  22DA               	addwfc	fsr2h,f,c
  6300  001734  CF6D FFDF          	movff	3949,indf2	;volatile
  6301                           
  6302                           ; BSR set to: 15
  6303                           ;inc\CANlib.h: 600: msg->RTR = RXB0DLCbits.RXRTR;
  6304  001738  EE20 F00E          	lfsr	2,14
  6305  00173C  5001               	movf	CANreceiveMessage@msg,w,c
  6306  00173E  26D9               	addwf	fsr2l,f,c
  6307  001740  5002               	movf	CANreceiveMessage@msg+1,w,c
  6308  001742  22DA               	addwfc	fsr2h,f,c
  6309  001744  AC65               	btfss	3941,6,c	;volatile
  6310  001746  D002               	goto	i1u345_20
  6311  001748  0E01               	movlw	1
  6312  00174A  D001               	goto	i1u345_26
  6313  00174C                     i1u345_20:
  6314  00174C  0E00               	movlw	0
  6315  00174E                     i1u345_26:
  6316  00174E  6EDF               	movwf	indf2,c
  6317                           
  6318                           ; BSR set to: 15
  6319                           ;inc\CANlib.h: 602: msg->length = RXB0DLC & 0x0F;
  6320  001750  EE20 F00D          	lfsr	2,13
  6321  001754  5001               	movf	CANreceiveMessage@msg,w,c
  6322  001756  26D9               	addwf	fsr2l,f,c
  6323  001758  5002               	movf	CANreceiveMessage@msg+1,w,c
  6324  00175A  22DA               	addwfc	fsr2h,f,c
  6325  00175C  5065               	movf	3941,w,c	;volatile
  6326  00175E  0B0F               	andlw	15
  6327  001760  6EDF               	movwf	indf2,c
  6328                           
  6329                           ; BSR set to: 15
  6330                           ;inc\CANlib.h: 604: msg->type = RXB0SIDLbits.EXID;
  6331  001762  EE20 F00C          	lfsr	2,12
  6332  001766  5001               	movf	CANreceiveMessage@msg,w,c
  6333  001768  26D9               	addwf	fsr2l,f,c
  6334  00176A  5002               	movf	CANreceiveMessage@msg+1,w,c
  6335  00176C  22DA               	addwfc	fsr2h,f,c
  6336  00176E  A662               	btfss	3938,3,c	;volatile
  6337  001770  D002               	goto	i1u346_20
  6338  001772  0E01               	movlw	1
  6339  001774  D001               	goto	i1u346_26
  6340  001776                     i1u346_20:
  6341  001776  0E00               	movlw	0
  6342  001778                     i1u346_26:
  6343  001778  6EDF               	movwf	indf2,c
  6344                           
  6345                           ; BSR set to: 15
  6346                           ;inc\CANlib.h: 606: if (RXB0SIDLbits.EXID == 0)
  6347  00177A  B662               	btfsc	3938,3,c	;volatile
  6348  00177C  D043               	goto	i1l3154
  6349                           
  6350                           ; BSR set to: 15
  6351                           ;inc\CANlib.h: 607: {
  6352                           ;inc\CANlib.h: 608: msg->identifier = ((unsigned long)RXB0SIDH)<< 3;
  6353  00177E  CF61 F003          	movff	3937,??_CANreceiveMessage	;volatile
  6354  001782  6A04               	clrf	(??_CANreceiveMessage+1)& (0+255),c
  6355  001784  6A05               	clrf	(??_CANreceiveMessage+2)& (0+255),c
  6356  001786  6A06               	clrf	(??_CANreceiveMessage+3)& (0+255),c
  6357  001788  0E03               	movlw	3
  6358  00178A                     i1u348_25:
  6359  00178A  90D8               	bcf	status,0,c
  6360  00178C  3603               	rlcf	??_CANreceiveMessage,f,c
  6361  00178E  3604               	rlcf	??_CANreceiveMessage+1,f,c
  6362  001790  3605               	rlcf	??_CANreceiveMessage+2,f,c
  6363  001792  3606               	rlcf	??_CANreceiveMessage+3,f,c
  6364  001794  2EE8               	decfsz	wreg,f,c
  6365  001796  D7F9               	goto	i1u348_25
  6366  001798  C001  FFD9         	movff	CANreceiveMessage@msg,fsr2l
  6367  00179C  C002  FFDA         	movff	CANreceiveMessage@msg+1,fsr2h
  6368  0017A0  C003  FFDE         	movff	??_CANreceiveMessage,postinc2
  6369  0017A4  C004  FFDE         	movff	??_CANreceiveMessage+1,postinc2
  6370  0017A8  C005  FFDE         	movff	??_CANreceiveMessage+2,postinc2
  6371  0017AC  C006  FFDE         	movff	??_CANreceiveMessage+3,postinc2
  6372                           
  6373                           ; BSR set to: 15
  6374                           ;inc\CANlib.h: 609: tamp = (RXB0SIDL >> 5 ) & 0x07;
  6375  0017B0  3862               	swapf	3938,w,c	;volatile
  6376  0017B2  42E8               	rrncf	wreg,f,c
  6377  0017B4  0B07               	andlw	7
  6378  0017B6  0B07               	andlw	7
  6379  0017B8  6E0C               	movwf	CANreceiveMessage@tamp,c
  6380                           
  6381                           ; BSR set to: 15
  6382                           ;inc\CANlib.h: 610: msg->identifier = msg->identifier + tamp;
  6383  0017BA  C001  FFD9         	movff	CANreceiveMessage@msg,fsr2l
  6384  0017BE  C002  FFDA         	movff	CANreceiveMessage@msg+1,fsr2h
  6385  0017C2  CFDE F003          	movff	postinc2,??_CANreceiveMessage
  6386  0017C6  CFDE F004          	movff	postinc2,??_CANreceiveMessage+1
  6387  0017CA  CFDE F005          	movff	postinc2,??_CANreceiveMessage+2
  6388  0017CE  CFDE F006          	movff	postinc2,??_CANreceiveMessage+3
  6389  0017D2  500C               	movf	CANreceiveMessage@tamp,w,c
  6390  0017D4  2403               	addwf	??_CANreceiveMessage,w,c
  6391  0017D6  6E07               	movwf	(??_CANreceiveMessage+4)& (0+255),c
  6392  0017D8  0E00               	movlw	0
  6393  0017DA  2004               	addwfc	??_CANreceiveMessage+1,w,c
  6394  0017DC  6E08               	movwf	(??_CANreceiveMessage+5)& (0+255),c
  6395  0017DE  0E00               	movlw	0
  6396  0017E0  2005               	addwfc	??_CANreceiveMessage+2,w,c
  6397  0017E2  6E09               	movwf	(??_CANreceiveMessage+6)& (0+255),c
  6398  0017E4  0E00               	movlw	0
  6399  0017E6  2006               	addwfc	??_CANreceiveMessage+3,w,c
  6400  0017E8  6E0A               	movwf	(??_CANreceiveMessage+7)& (0+255),c
  6401  0017EA  C001  FFD9         	movff	CANreceiveMessage@msg,fsr2l
  6402  0017EE  C002  FFDA         	movff	CANreceiveMessage@msg+1,fsr2h
  6403  0017F2  C007  FFDE         	movff	??_CANreceiveMessage+4,postinc2
  6404  0017F6  C008  FFDE         	movff	??_CANreceiveMessage+5,postinc2
  6405  0017FA  C009  FFDE         	movff	??_CANreceiveMessage+6,postinc2
  6406  0017FE  C00A  FFDE         	movff	??_CANreceiveMessage+7,postinc2
  6407                           
  6408                           ;inc\CANlib.h: 611: }
  6409  001802  D088               	goto	i1l3180
  6410  001804                     i1l3154:
  6411                           
  6412                           ; BSR set to: 15
  6413                           ;inc\CANlib.h: 612: else
  6414                           ;inc\CANlib.h: 613: {
  6415                           ;inc\CANlib.h: 614: msg->identifier = (unsigned long) RXB0EIDL;
  6416  001804  CF64 F003          	movff	3940,??_CANreceiveMessage	;volatile
  6417  001808  6A04               	clrf	(??_CANreceiveMessage+1)& (0+255),c
  6418  00180A  6A05               	clrf	(??_CANreceiveMessage+2)& (0+255),c
  6419  00180C  6A06               	clrf	(??_CANreceiveMessage+3)& (0+255),c
  6420  00180E  C001  FFD9         	movff	CANreceiveMessage@msg,fsr2l
  6421  001812  C002  FFDA         	movff	CANreceiveMessage@msg+1,fsr2h
  6422  001816  C003  FFDE         	movff	??_CANreceiveMessage,postinc2
  6423  00181A  C004  FFDE         	movff	??_CANreceiveMessage+1,postinc2
  6424  00181E  C005  FFDE         	movff	??_CANreceiveMessage+2,postinc2
  6425  001822  C006  FFDE         	movff	??_CANreceiveMessage+3,postinc2
  6426                           
  6427                           ; BSR set to: 15
  6428                           ;inc\CANlib.h: 615: msg->identifier += ((unsigned long) RXB0EIDH) << 8;
  6429  001826  CF63 F003          	movff	3939,??_CANreceiveMessage	;volatile
  6430  00182A  6A04               	clrf	(??_CANreceiveMessage+1)& (0+255),c
  6431  00182C  6A05               	clrf	(??_CANreceiveMessage+2)& (0+255),c
  6432  00182E  6A06               	clrf	(??_CANreceiveMessage+3)& (0+255),c
  6433  001830  C005  F006         	movff	??_CANreceiveMessage+2,??_CANreceiveMessage+3
  6434  001834  C004  F005         	movff	??_CANreceiveMessage+1,??_CANreceiveMessage+2
  6435  001838  C003  F004         	movff	??_CANreceiveMessage,??_CANreceiveMessage+1
  6436  00183C  6A03               	clrf	??_CANreceiveMessage,c
  6437  00183E  C001  FFD9         	movff	CANreceiveMessage@msg,fsr2l
  6438  001842  C002  FFDA         	movff	CANreceiveMessage@msg+1,fsr2h
  6439  001846  5003               	movf	??_CANreceiveMessage,w,c
  6440  001848  26DE               	addwf	postinc2,f,c
  6441  00184A  5004               	movf	??_CANreceiveMessage+1,w,c
  6442  00184C  22DE               	addwfc	postinc2,f,c
  6443  00184E  5005               	movf	??_CANreceiveMessage+2,w,c
  6444  001850  22DE               	addwfc	postinc2,f,c
  6445  001852  5006               	movf	??_CANreceiveMessage+3,w,c
  6446  001854  22DE               	addwfc	postinc2,f,c
  6447                           
  6448                           ; BSR set to: 15
  6449                           ;inc\CANlib.h: 617: if (RXB0SIDLbits.EID16)
  6450  001856  A062               	btfss	3938,0,c	;volatile
  6451  001858  D00C               	goto	i1l3162
  6452                           
  6453                           ; BSR set to: 15
  6454                           ;inc\CANlib.h: 618: msg->identifier |= 0x00010000;
  6455  00185A  C001  FFD9         	movff	CANreceiveMessage@msg,fsr2l
  6456  00185E  C002  FFDA         	movff	CANreceiveMessage@msg+1,fsr2h
  6457  001862  0E00               	movlw	0
  6458  001864  12DE               	iorwf	postinc2,f,c
  6459  001866  0E00               	movlw	0
  6460  001868  12DE               	iorwf	postinc2,f,c
  6461  00186A  0E01               	movlw	1
  6462  00186C  12DE               	iorwf	postinc2,f,c
  6463  00186E  0E00               	movlw	0
  6464  001870  12DE               	iorwf	postinc2,f,c
  6465  001872                     i1l3162:
  6466                           
  6467                           ; BSR set to: 15
  6468                           ;inc\CANlib.h: 619: if (RXB0SIDLbits.EID17)
  6469  001872  A262               	btfss	3938,1,c	;volatile
  6470  001874  D00C               	goto	i1l3166
  6471                           
  6472                           ; BSR set to: 15
  6473                           ;inc\CANlib.h: 620: msg->identifier |= 0x00020000;
  6474  001876  C001  FFD9         	movff	CANreceiveMessage@msg,fsr2l
  6475  00187A  C002  FFDA         	movff	CANreceiveMessage@msg+1,fsr2h
  6476  00187E  0E00               	movlw	0
  6477  001880  12DE               	iorwf	postinc2,f,c
  6478  001882  0E00               	movlw	0
  6479  001884  12DE               	iorwf	postinc2,f,c
  6480  001886  0E02               	movlw	2
  6481  001888  12DE               	iorwf	postinc2,f,c
  6482  00188A  0E00               	movlw	0
  6483  00188C  12DE               	iorwf	postinc2,f,c
  6484  00188E                     i1l3166:
  6485                           
  6486                           ; BSR set to: 15
  6487                           ;inc\CANlib.h: 621: if (RXB0SIDLbits.SID0)
  6488  00188E  AA62               	btfss	3938,5,c	;volatile
  6489  001890  D00C               	goto	i1l3170
  6490                           
  6491                           ; BSR set to: 15
  6492                           ;inc\CANlib.h: 622: msg->identifier |= 0x00040000;
  6493  001892  C001  FFD9         	movff	CANreceiveMessage@msg,fsr2l
  6494  001896  C002  FFDA         	movff	CANreceiveMessage@msg+1,fsr2h
  6495  00189A  0E00               	movlw	0
  6496  00189C  12DE               	iorwf	postinc2,f,c
  6497  00189E  0E00               	movlw	0
  6498  0018A0  12DE               	iorwf	postinc2,f,c
  6499  0018A2  0E04               	movlw	4
  6500  0018A4  12DE               	iorwf	postinc2,f,c
  6501  0018A6  0E00               	movlw	0
  6502  0018A8  12DE               	iorwf	postinc2,f,c
  6503  0018AA                     i1l3170:
  6504                           
  6505                           ; BSR set to: 15
  6506                           ;inc\CANlib.h: 623: if (RXB0SIDLbits.SID1)
  6507  0018AA  AC62               	btfss	3938,6,c	;volatile
  6508  0018AC  D00C               	goto	i1l3174
  6509                           
  6510                           ; BSR set to: 15
  6511                           ;inc\CANlib.h: 624: msg->identifier |= 0x00080000;
  6512  0018AE  C001  FFD9         	movff	CANreceiveMessage@msg,fsr2l
  6513  0018B2  C002  FFDA         	movff	CANreceiveMessage@msg+1,fsr2h
  6514  0018B6  0E00               	movlw	0
  6515  0018B8  12DE               	iorwf	postinc2,f,c
  6516  0018BA  0E00               	movlw	0
  6517  0018BC  12DE               	iorwf	postinc2,f,c
  6518  0018BE  0E08               	movlw	8
  6519  0018C0  12DE               	iorwf	postinc2,f,c
  6520  0018C2  0E00               	movlw	0
  6521  0018C4  12DE               	iorwf	postinc2,f,c
  6522  0018C6                     i1l3174:
  6523                           
  6524                           ; BSR set to: 15
  6525                           ;inc\CANlib.h: 625: if (RXB0SIDLbits.SID2)
  6526  0018C6  AE62               	btfss	3938,7,c	;volatile
  6527  0018C8  D00C               	goto	i1l3178
  6528                           
  6529                           ; BSR set to: 15
  6530                           ;inc\CANlib.h: 626: msg->identifier |= 0x00100000;
  6531  0018CA  C001  FFD9         	movff	CANreceiveMessage@msg,fsr2l
  6532  0018CE  C002  FFDA         	movff	CANreceiveMessage@msg+1,fsr2h
  6533  0018D2  0E00               	movlw	0
  6534  0018D4  12DE               	iorwf	postinc2,f,c
  6535  0018D6  0E00               	movlw	0
  6536  0018D8  12DE               	iorwf	postinc2,f,c
  6537  0018DA  0E10               	movlw	16
  6538  0018DC  12DE               	iorwf	postinc2,f,c
  6539  0018DE  0E00               	movlw	0
  6540  0018E0  12DE               	iorwf	postinc2,f,c
  6541  0018E2                     i1l3178:
  6542                           
  6543                           ; BSR set to: 15
  6544                           ;inc\CANlib.h: 628: msg->identifier |= ((unsigned long) RXB0SIDH) << 21;
  6545  0018E2  CF61 F003          	movff	3937,??_CANreceiveMessage	;volatile
  6546  0018E6  6A04               	clrf	(??_CANreceiveMessage+1)& (0+255),c
  6547  0018E8  6A05               	clrf	(??_CANreceiveMessage+2)& (0+255),c
  6548  0018EA  6A06               	clrf	(??_CANreceiveMessage+3)& (0+255),c
  6549  0018EC  0E15               	movlw	21
  6550  0018EE                     i1u354_25:
  6551  0018EE  90D8               	bcf	status,0,c
  6552  0018F0  3603               	rlcf	??_CANreceiveMessage,f,c
  6553  0018F2  3604               	rlcf	??_CANreceiveMessage+1,f,c
  6554  0018F4  3605               	rlcf	??_CANreceiveMessage+2,f,c
  6555  0018F6  3606               	rlcf	??_CANreceiveMessage+3,f,c
  6556  0018F8  2EE8               	decfsz	wreg,f,c
  6557  0018FA  D7F9               	goto	i1u354_25
  6558  0018FC  C001  FFD9         	movff	CANreceiveMessage@msg,fsr2l
  6559  001900  C002  FFDA         	movff	CANreceiveMessage@msg+1,fsr2h
  6560  001904  5003               	movf	??_CANreceiveMessage,w,c
  6561  001906  12DE               	iorwf	postinc2,f,c
  6562  001908  5004               	movf	??_CANreceiveMessage+1,w,c
  6563  00190A  12DE               	iorwf	postinc2,f,c
  6564  00190C  5005               	movf	??_CANreceiveMessage+2,w,c
  6565  00190E  12DE               	iorwf	postinc2,f,c
  6566  001910  5006               	movf	??_CANreceiveMessage+3,w,c
  6567  001912  12DE               	iorwf	postinc2,f,c
  6568  001914                     i1l3180:
  6569                           
  6570                           ; BSR set to: 15
  6571                           ;inc\CANlib.h: 630: }
  6572                           ;inc\CANlib.h: 631: RXB0CONbits.RXFUL = 0x00;
  6573  001914  9E60               	bcf	3936,7,c	;volatile
  6574                           
  6575                           ; BSR set to: 15
  6576                           ;inc\CANlib.h: 633: return (error);
  6577                           ;	Return value of _CANreceiveMessage is never used
  6578  001916  0012               	return	
  6579  001918                     __end_of_CANreceiveMessage:
  6580                           	opt stack 0
  6581                           pclatu	equ	0xFFB
  6582                           pclath	equ	0xFFA
  6583                           tblptru	equ	0xFF8
  6584                           tblptrh	equ	0xFF7
  6585                           tblptrl	equ	0xFF6
  6586                           tablat	equ	0xFF5
  6587                           prodh	equ	0xFF4
  6588                           prodl	equ	0xFF3
  6589                           intcon	equ	0xFF2
  6590                           intcon2	equ	0xFF1
  6591                           postinc0	equ	0xFEE
  6592                           fsr0h	equ	0xFEA
  6593                           fsr0l	equ	0xFE9
  6594                           wreg	equ	0xFE8
  6595                           fsr1h	equ	0xFE2
  6596                           fsr1l	equ	0xFE1
  6597                           bsr	equ	0xFE0
  6598                           indf2	equ	0xFDF
  6599                           postinc2	equ	0xFDE
  6600                           postdec2	equ	0xFDD
  6601                           fsr2h	equ	0xFDA
  6602                           fsr2l	equ	0xFD9
  6603                           status	equ	0xFD8
  6604                           
  6605 ;; *************** function _CANisRxReady *****************
  6606 ;; Defined at:
  6607 ;;		line 1164 in file "../../LaurTec_PIC_libraries_v_3.3.0/inc\CANlib.h"
  6608 ;; Parameters:    Size  Location     Type
  6609 ;;		None
  6610 ;; Auto vars:     Size  Location     Type
  6611 ;;		None
  6612 ;; Return value:  Size  Location     Type
  6613 ;;                  1    wreg      unsigned char 
  6614 ;; Registers used:
  6615 ;;		wreg, status,2
  6616 ;; Tracked objects:
  6617 ;;		On entry : 0/0
  6618 ;;		On exit  : 0/0
  6619 ;;		Unchanged: 0/0
  6620 ;; Data sizes:     COMRAM   BANK0   BANK1   BANK2   BANK3   BANK4   BANK5   BANK6   BANK7   BANK8   BANK9  BANK10  BANK1
      +1  BANK12
  6621 ;;      Params:         0       0       0       0       0       0       0       0       0       0       0       0       
      +0       0
  6622 ;;      Locals:         1       0       0       0       0       0       0       0       0       0       0       0       
      +0       0
  6623 ;;      Temps:          0       0       0       0       0       0       0       0       0       0       0       0       
      +0       0
  6624 ;;      Totals:         1       0       0       0       0       0       0       0       0       0       0       0       
      +0       0
  6625 ;;Total ram usage:        1 bytes
  6626 ;; Hardware stack levels used:    1
  6627 ;; Hardware stack levels required when called:    2
  6628 ;; This function calls:
  6629 ;;		Nothing
  6630 ;; This function is called by:
  6631 ;;		_ISR_Bassa
  6632 ;; This function uses a non-reentrant model
  6633 ;;
  6634                           
  6635                           	psect	text10
  6636  00217C                     __ptext10:
  6637                           	opt stack 0
  6638  00217C                     _CANisRxReady:
  6639                           	opt stack 24
  6640                           
  6641                           ;inc\CANlib.h: 1166: return (RXB0CONbits.RXFUL || RXB1CONbits.RXFUL);
  6642                           
  6643                           ; BSR set to: 15
  6644                           ;incstack = 0
  6645  00217C  0E01               	movlw	1
  6646  00217E  6E01               	movwf	_CANisRxReady$2724,c
  6647  002180  BE60               	btfsc	3936,7,c	;volatile
  6648  002182  D005               	goto	i1l537
  6649  002184  010F               	movlb	15	; () banked
  6650  002186  BF50               	btfsc	80,7,b	;volatile
  6651  002188  D002               	goto	i1l537
  6652                           
  6653                           ; BSR set to: 15
  6654  00218A  0E00               	movlw	0
  6655  00218C  6E01               	movwf	_CANisRxReady$2724,c
  6656  00218E                     i1l537:
  6657  00218E  5001               	movf	_CANisRxReady$2724,w,c
  6658  002190  0012               	return	
  6659  002192                     __end_of_CANisRxReady:
  6660                           	opt stack 0
  6661                           pclatu	equ	0xFFB
  6662                           pclath	equ	0xFFA
  6663                           tblptru	equ	0xFF8
  6664                           tblptrh	equ	0xFF7
  6665                           tblptrl	equ	0xFF6
  6666                           tablat	equ	0xFF5
  6667                           prodh	equ	0xFF4
  6668                           prodl	equ	0xFF3
  6669                           intcon	equ	0xFF2
  6670                           intcon2	equ	0xFF1
  6671                           postinc0	equ	0xFEE
  6672                           fsr0h	equ	0xFEA
  6673                           fsr0l	equ	0xFE9
  6674                           wreg	equ	0xFE8
  6675                           fsr1h	equ	0xFE2
  6676                           fsr1l	equ	0xFE1
  6677                           bsr	equ	0xFE0
  6678                           indf2	equ	0xFDF
  6679                           postinc2	equ	0xFDE
  6680                           postdec2	equ	0xFDD
  6681                           fsr2h	equ	0xFDA
  6682                           fsr2l	equ	0xFD9
  6683                           status	equ	0xFD8
  6684                           
  6685 ;; *************** function _ISR_Alta *****************
  6686 ;; Defined at:
  6687 ;;		line 29 in file "parcheggio.c"
  6688 ;; Parameters:    Size  Location     Type
  6689 ;;		None
  6690 ;; Auto vars:     Size  Location     Type
  6691 ;;		None
  6692 ;; Return value:  Size  Location     Type
  6693 ;;		None               void
  6694 ;; Registers used:
  6695 ;;		wreg, fsr2l, fsr2h, status,2, status,0, prodl, prodh, cstack
  6696 ;; Tracked objects:
  6697 ;;		On entry : 0/0
  6698 ;;		On exit  : 0/0
  6699 ;;		Unchanged: 0/0
  6700 ;; Data sizes:     COMRAM   BANK0   BANK1   BANK2   BANK3   BANK4   BANK5   BANK6   BANK7   BANK8   BANK9  BANK10  BANK1
      +1  BANK12
  6701 ;;      Params:         0       0       0       0       0       0       0       0       0       0       0       0       
      +0       0
  6702 ;;      Locals:         0       0       0       0       0       0       0       0       0       0       0       0       
      +0       0
  6703 ;;      Temps:          0      16       0       0       0       0       0       0       0       0       0       0       
      +0       0
  6704 ;;      Totals:         0      16       0       0       0       0       0       0       0       0       0       0       
      +0       0
  6705 ;;Total ram usage:       16 bytes
  6706 ;; Hardware stack levels used:    1
  6707 ;; Hardware stack levels required when called:    1
  6708 ;; This function calls:
  6709 ;;		___lwdiv
  6710 ;; This function is called by:
  6711 ;;		Interrupt level 2
  6712 ;; This function uses a non-reentrant model
  6713 ;;
  6714                           
  6715                           	psect	intcode
  6716  000008                     __pintcode:
  6717                           	opt stack 0
  6718  000008                     _ISR_Alta:
  6719                           	opt stack 24
  6720                           
  6721                           ;incstack = 0
  6722  000008  823F               	bsf	btemp,1,c	;set compiler interrupt flag (level 2)
  6723  00000A  CFFA F066          	movff	pclath,??_ISR_Alta+2
  6724  00000E  CFFB F067          	movff	pclatu,??_ISR_Alta+3
  6725  000012  ED3E  F00F         	call	int_func,f	;refresh shadow registers
  6726                           pclatu	equ	0xFFB
  6727                           pclath	equ	0xFFA
  6728                           tblptru	equ	0xFF8
  6729                           tblptrh	equ	0xFF7
  6730                           tblptrl	equ	0xFF6
  6731                           tablat	equ	0xFF5
  6732                           prodh	equ	0xFF4
  6733                           prodl	equ	0xFF3
  6734                           intcon	equ	0xFF2
  6735                           intcon2	equ	0xFF1
  6736                           postinc0	equ	0xFEE
  6737                           fsr0h	equ	0xFEA
  6738                           fsr0l	equ	0xFE9
  6739                           wreg	equ	0xFE8
  6740                           fsr1h	equ	0xFE2
  6741                           fsr1l	equ	0xFE1
  6742                           bsr	equ	0xFE0
  6743                           indf2	equ	0xFDF
  6744                           postinc2	equ	0xFDE
  6745                           postdec2	equ	0xFDD
  6746                           fsr2h	equ	0xFDA
  6747                           fsr2l	equ	0xFD9
  6748                           status	equ	0xFD8
  6749                           
  6750                           	psect	intcode_body
  6751  001E7C                     __pintcode_body:
  6752                           	opt stack 24
  6753  001E7C                     int_func:
  6754                           	opt stack 24
  6755  001E7C  0006               	pop		; remove dummy address from shadow register refresh
  6756  001E7E  CFE9 F068          	movff	fsr0l,??_ISR_Alta+4
  6757  001E82  CFEA F069          	movff	fsr0h,??_ISR_Alta+5
  6758  001E86  CFE1 F06A          	movff	fsr1l,??_ISR_Alta+6
  6759  001E8A  CFE2 F06B          	movff	fsr1h,??_ISR_Alta+7
  6760  001E8E  CFD9 F06C          	movff	fsr2l,??_ISR_Alta+8
  6761  001E92  CFDA F06D          	movff	fsr2h,??_ISR_Alta+9
  6762  001E96  CFF3 F06E          	movff	prodl,??_ISR_Alta+10
  6763  001E9A  CFF4 F06F          	movff	prodh,??_ISR_Alta+11
  6764  001E9E  CFF6 F070          	movff	tblptrl,??_ISR_Alta+12
  6765  001EA2  CFF7 F071          	movff	tblptrh,??_ISR_Alta+13
  6766  001EA6  CFF8 F072          	movff	tblptru,??_ISR_Alta+14
  6767  001EAA  CFF5 F073          	movff	tablat,??_ISR_Alta+15
  6768                           
  6769                           ;parcheggio.c: 30: if (INTCON2bits.INTEDG0 == 1) {
  6770  001EAE  ACF1               	btfss	intcon2,6,c	;volatile
  6771  001EB0  D006               	goto	i2l590
  6772                           
  6773                           ;parcheggio.c: 36: INTCON2bits.INTEDG0 = 0;
  6774  001EB2  9CF1               	bcf	intcon2,6,c	;volatile
  6775                           
  6776                           ;parcheggio.c: 37: TMR3H = 0;
  6777  001EB4  0E00               	movlw	0
  6778  001EB6  6EB3               	movwf	4019,c	;volatile
  6779                           
  6780                           ;parcheggio.c: 38: TMR3L = 0;
  6781  001EB8  0E00               	movlw	0
  6782  001EBA  6EB2               	movwf	4018,c	;volatile
  6783                           
  6784                           ;parcheggio.c: 40: } else {
  6785  001EBC  D030               	goto	i2l3458
  6786  001EBE                     i2l590:
  6787                           
  6788                           ;parcheggio.c: 42: gianni = TMR3H;
  6789  001EBE  CFB3 F03C          	movff	4019,_gianni	;volatile
  6790                           
  6791                           ;parcheggio.c: 43: asus = TMR3L;
  6792  001EC2  CFB2 F03B          	movff	4018,_asus	;volatile
  6793                           
  6794                           ;parcheggio.c: 44: timerValue2 = gianni;
  6795  001EC6  C03C  F038         	movff	_gianni,_timerValue2	;volatile
  6796  001ECA  6A39               	clrf	_timerValue2+1,c	;volatile
  6797                           
  6798                           ;parcheggio.c: 45: timerValue2 = ((timerValue2 << 8) | (asus));
  6799  001ECC  5038               	movf	_timerValue2,w,c	;volatile
  6800  001ECE  0100               	movlb	0	; () banked
  6801  001ED0  6F64               	movwf	??_ISR_Alta& (0+255),b
  6802  001ED2  503B               	movf	_asus,w,c	;volatile
  6803  001ED4  6E38               	movwf	_timerValue2,c	;volatile
  6804  001ED6  C064  F039         	movff	??_ISR_Alta,_timerValue2+1	;volatile
  6805                           
  6806                           ; BSR set to: 0
  6807                           ;parcheggio.c: 46: pulse_time = timerValue2 / 2;
  6808  001EDA  90D8               	bcf	status,0,c
  6809  001EDC  3039               	rrcf	_timerValue2+1,w,c	;volatile
  6810  001EDE  0100               	movlb	0	; () banked
  6811  001EE0  6F64               	movwf	??_ISR_Alta& (0+255),b
  6812  001EE2  3038               	rrcf	_timerValue2,w,c	;volatile
  6813  001EE4  6E34               	movwf	_pulse_time,c
  6814  001EE6  C064  F035         	movff	??_ISR_Alta,_pulse_time+1
  6815                           
  6816                           ; BSR set to: 0
  6817                           ;parcheggio.c: 47: sensor_distance[MUX_index] = pulse_time / 58;
  6818  001EEA  C034  F060         	movff	_pulse_time,___lwdiv@dividend
  6819  001EEE  C035  F061         	movff	_pulse_time+1,___lwdiv@dividend+1
  6820  001EF2  0E00               	movlw	0
  6821  001EF4  0100               	movlb	0	; () banked
  6822  001EF6  6F63               	movwf	(___lwdiv@divisor+1)& (0+255),b
  6823  001EF8  0E3A               	movlw	58
  6824  001EFA  6F62               	movwf	___lwdiv@divisor& (0+255),b
  6825  001EFC  EC1A  F010         	call	___lwdiv	;wreg free
  6826  001F00  503A               	movf	_MUX_index,w,c	;volatile
  6827  001F02  0D02               	mullw	2
  6828  001F04  0E8E               	movlw	low _sensor_distance
  6829  001F06  24F3               	addwf	prodl,w,c
  6830  001F08  6ED9               	movwf	fsr2l,c
  6831  001F0A  0E00               	movlw	high _sensor_distance
  6832  001F0C  20F4               	addwfc	prodh,w,c
  6833  001F0E  6EDA               	movwf	fsr2h,c
  6834  001F10  0100               	movlb	0	; () banked
  6835  001F12  C060  FFDE         	movff	?___lwdiv,postinc2
  6836  001F16  0100               	movlb	0	; () banked
  6837  001F18  C061  FFDD         	movff	?___lwdiv+1,postdec2
  6838                           
  6839                           ; BSR set to: 0
  6840                           ;parcheggio.c: 48: INTCON2bits.INTEDG0 = 1;
  6841  001F1C  8CF1               	bsf	intcon2,6,c	;volatile
  6842  001F1E                     i2l3458:
  6843                           
  6844                           ;parcheggio.c: 50: }
  6845                           ;parcheggio.c: 51: INTCONbits.INT0IF = 0;
  6846  001F1E  92F2               	bcf	intcon,1,c	;volatile
  6847  001F20  C073  FFF5         	movff	??_ISR_Alta+15,tablat
  6848  001F24  C072  FFF8         	movff	??_ISR_Alta+14,tblptru
  6849  001F28  C071  FFF7         	movff	??_ISR_Alta+13,tblptrh
  6850  001F2C  C070  FFF6         	movff	??_ISR_Alta+12,tblptrl
  6851  001F30  C06F  FFF4         	movff	??_ISR_Alta+11,prodh
  6852  001F34  C06E  FFF3         	movff	??_ISR_Alta+10,prodl
  6853  001F38  C06D  FFDA         	movff	??_ISR_Alta+9,fsr2h
  6854  001F3C  C06C  FFD9         	movff	??_ISR_Alta+8,fsr2l
  6855  001F40  C06B  FFE2         	movff	??_ISR_Alta+7,fsr1h
  6856  001F44  C06A  FFE1         	movff	??_ISR_Alta+6,fsr1l
  6857  001F48  C069  FFEA         	movff	??_ISR_Alta+5,fsr0h
  6858  001F4C  C068  FFE9         	movff	??_ISR_Alta+4,fsr0l
  6859  001F50  C067  FFFB         	movff	??_ISR_Alta+3,pclatu
  6860  001F54  C066  FFFA         	movff	??_ISR_Alta+2,pclath
  6861  001F58  923F               	bcf	btemp,1,c	;clear compiler interrupt flag (level 2)
  6862  001F5A  0011               	retfie		f
  6863  001F5C                     __end_of_ISR_Alta:
  6864                           	opt stack 0
  6865                           pclatu	equ	0xFFB
  6866                           pclath	equ	0xFFA
  6867                           tblptru	equ	0xFF8
  6868                           tblptrh	equ	0xFF7
  6869                           tblptrl	equ	0xFF6
  6870                           tablat	equ	0xFF5
  6871                           prodh	equ	0xFF4
  6872                           prodl	equ	0xFF3
  6873                           intcon	equ	0xFF2
  6874                           intcon2	equ	0xFF1
  6875                           postinc0	equ	0xFEE
  6876                           fsr0h	equ	0xFEA
  6877                           fsr0l	equ	0xFE9
  6878                           wreg	equ	0xFE8
  6879                           fsr1h	equ	0xFE2
  6880                           fsr1l	equ	0xFE1
  6881                           bsr	equ	0xFE0
  6882                           indf2	equ	0xFDF
  6883                           postinc2	equ	0xFDE
  6884                           postdec2	equ	0xFDD
  6885                           fsr2h	equ	0xFDA
  6886                           fsr2l	equ	0xFD9
  6887                           status	equ	0xFD8
  6888                           
  6889 ;; *************** function ___lwdiv *****************
  6890 ;; Defined at:
  6891 ;;		line 8 in file "C:\Program Files (x86)\Microchip\xc8\v1.35\sources\common\lwdiv.c"
  6892 ;; Parameters:    Size  Location     Type
  6893 ;;  dividend        2    0[BANK0 ] unsigned int 
  6894 ;;  divisor         2    2[BANK0 ] unsigned int 
  6895 ;; Auto vars:     Size  Location     Type
  6896 ;;  quotient        2   33[COMRAM] unsigned int 
  6897 ;;  counter         1   32[COMRAM] unsigned char 
  6898 ;; Return value:  Size  Location     Type
  6899 ;;                  2    0[BANK0 ] unsigned int 
  6900 ;; Registers used:
  6901 ;;		wreg, status,2, status,0
  6902 ;; Tracked objects:
  6903 ;;		On entry : 0/0
  6904 ;;		On exit  : 0/0
  6905 ;;		Unchanged: 0/0
  6906 ;; Data sizes:     COMRAM   BANK0   BANK1   BANK2   BANK3   BANK4   BANK5   BANK6   BANK7   BANK8   BANK9  BANK10  BANK1
      +1  BANK12
  6907 ;;      Params:         0       4       0       0       0       0       0       0       0       0       0       0       
      +0       0
  6908 ;;      Locals:         3       0       0       0       0       0       0       0       0       0       0       0       
      +0       0
  6909 ;;      Temps:          0       0       0       0       0       0       0       0       0       0       0       0       
      +0       0
  6910 ;;      Totals:         3       4       0       0       0       0       0       0       0       0       0       0       
      +0       0
  6911 ;;Total ram usage:        7 bytes
  6912 ;; Hardware stack levels used:    1
  6913 ;; This function calls:
  6914 ;;		Nothing
  6915 ;; This function is called by:
  6916 ;;		_ISR_Alta
  6917 ;; This function uses a non-reentrant model
  6918 ;;
  6919                           
  6920                           	psect	text12
  6921  002034                     __ptext12:
  6922                           	opt stack 0
  6923  002034                     ___lwdiv:
  6924                           	opt stack 24
  6925                           
  6926                           ;incstack = 0
  6927  002034  0E00               	movlw	0
  6928  002036  6E23               	movwf	___lwdiv@quotient+1,c
  6929  002038  0E00               	movlw	0
  6930  00203A  6E22               	movwf	___lwdiv@quotient,c
  6931  00203C  0100               	movlb	0	; () banked
  6932  00203E  5162               	movf	___lwdiv@divisor& (0+255),w,b
  6933  002040  0100               	movlb	0	; () banked
  6934  002042  1163               	iorwf	(___lwdiv@divisor+1)& (0+255),w,b
  6935  002044  B4D8               	btfsc	status,2,c
  6936  002046  D027               	goto	i2l1029
  6937                           
  6938                           ; BSR set to: 0
  6939  002048  0E01               	movlw	1
  6940  00204A  6E21               	movwf	___lwdiv@counter,c
  6941  00204C  D005               	goto	i2l3430
  6942  00204E                     i2l3428:
  6943                           
  6944                           ; BSR set to: 0
  6945  00204E  0100               	movlb	0	; () banked
  6946  002050  90D8               	bcf	status,0,c
  6947  002052  3762               	rlcf	___lwdiv@divisor& (0+255),f,b
  6948  002054  3763               	rlcf	(___lwdiv@divisor+1)& (0+255),f,b
  6949  002056  2A21               	incf	___lwdiv@counter,f,c
  6950  002058                     i2l3430:
  6951                           
  6952                           ; BSR set to: 0
  6953  002058  0100               	movlb	0	; () banked
  6954  00205A  AF63               	btfss	(___lwdiv@divisor+1)& (0+255),7,b
  6955  00205C  D7F8               	goto	i2l3428
  6956  00205E                     i2l3432:
  6957                           
  6958                           ; BSR set to: 0
  6959  00205E  90D8               	bcf	status,0,c
  6960  002060  3622               	rlcf	___lwdiv@quotient,f,c
  6961  002062  3623               	rlcf	___lwdiv@quotient+1,f,c
  6962                           
  6963                           ; BSR set to: 0
  6964  002064  0100               	movlb	0	; () banked
  6965  002066  5162               	movf	___lwdiv@divisor& (0+255),w,b
  6966  002068  0100               	movlb	0	; () banked
  6967  00206A  5D60               	subwf	___lwdiv@dividend& (0+255),w,b
  6968  00206C  0100               	movlb	0	; () banked
  6969  00206E  5163               	movf	(___lwdiv@divisor+1)& (0+255),w,b
  6970  002070  0100               	movlb	0	; () banked
  6971  002072  5961               	subwfb	(___lwdiv@dividend+1)& (0+255),w,b
  6972  002074  A0D8               	btfss	status,0,c
  6973  002076  D009               	goto	i2l3440
  6974                           
  6975                           ; BSR set to: 0
  6976  002078  0100               	movlb	0	; () banked
  6977  00207A  5162               	movf	___lwdiv@divisor& (0+255),w,b
  6978  00207C  0100               	movlb	0	; () banked
  6979  00207E  5F60               	subwf	___lwdiv@dividend& (0+255),f,b
  6980  002080  0100               	movlb	0	; () banked
  6981  002082  5163               	movf	(___lwdiv@divisor+1)& (0+255),w,b
  6982  002084  0100               	movlb	0	; () banked
  6983  002086  5B61               	subwfb	(___lwdiv@dividend+1)& (0+255),f,b
  6984                           
  6985                           ; BSR set to: 0
  6986  002088  8022               	bsf	___lwdiv@quotient,0,c
  6987  00208A                     i2l3440:
  6988                           
  6989                           ; BSR set to: 0
  6990  00208A  0100               	movlb	0	; () banked
  6991  00208C  90D8               	bcf	status,0,c
  6992  00208E  3363               	rrcf	(___lwdiv@divisor+1)& (0+255),f,b
  6993  002090  3362               	rrcf	___lwdiv@divisor& (0+255),f,b
  6994                           
  6995                           ; BSR set to: 0
  6996  002092  2E21               	decfsz	___lwdiv@counter,f,c
  6997  002094  D7E4               	goto	i2l3432
  6998  002096                     i2l1029:
  6999                           
  7000                           ; BSR set to: 0
  7001  002096  C022  F060         	movff	___lwdiv@quotient,?___lwdiv
  7002  00209A  C023  F061         	movff	___lwdiv@quotient+1,?___lwdiv+1
  7003                           
  7004                           ; BSR set to: 0
  7005  00209E  0012               	return		;funcret
  7006  0020A0                     __end_of___lwdiv:
  7007                           	opt stack 0
  7008  0000                     pclatu	equ	0xFFB
  7009                           pclath	equ	0xFFA
  7010                           tblptru	equ	0xFF8
  7011                           tblptrh	equ	0xFF7
  7012                           tblptrl	equ	0xFF6
  7013                           tablat	equ	0xFF5
  7014                           prodh	equ	0xFF4
  7015                           prodl	equ	0xFF3
  7016                           intcon	equ	0xFF2
  7017                           intcon2	equ	0xFF1
  7018                           postinc0	equ	0xFEE
  7019                           fsr0h	equ	0xFEA
  7020                           fsr0l	equ	0xFE9
  7021                           wreg	equ	0xFE8
  7022                           fsr1h	equ	0xFE2
  7023                           fsr1l	equ	0xFE1
  7024                           bsr	equ	0xFE0
  7025                           indf2	equ	0xFDF
  7026                           postinc2	equ	0xFDE
  7027                           postdec2	equ	0xFDD
  7028                           fsr2h	equ	0xFDA
  7029                           fsr2l	equ	0xFD9
  7030                           status	equ	0xFD8
  7031                           pclatu	equ	0xFFB
  7032                           pclath	equ	0xFFA
  7033                           tblptru	equ	0xFF8
  7034                           tblptrh	equ	0xFF7
  7035                           tblptrl	equ	0xFF6
  7036                           tablat	equ	0xFF5
  7037                           prodh	equ	0xFF4
  7038                           prodl	equ	0xFF3
  7039                           intcon	equ	0xFF2
  7040                           intcon2	equ	0xFF1
  7041                           postinc0	equ	0xFEE
  7042                           fsr0h	equ	0xFEA
  7043                           fsr0l	equ	0xFE9
  7044                           wreg	equ	0xFE8
  7045                           fsr1h	equ	0xFE2
  7046                           fsr1l	equ	0xFE1
  7047                           bsr	equ	0xFE0
  7048                           indf2	equ	0xFDF
  7049                           postinc2	equ	0xFDE
  7050                           postdec2	equ	0xFDD
  7051                           fsr2h	equ	0xFDA
  7052                           fsr2l	equ	0xFD9
  7053                           status	equ	0xFD8
  7054                           
  7055                           	psect	rparam
  7056  0000                     pclatu	equ	0xFFB
  7057                           pclath	equ	0xFFA
  7058                           tblptru	equ	0xFF8
  7059                           tblptrh	equ	0xFF7
  7060                           tblptrl	equ	0xFF6
  7061                           tablat	equ	0xFF5
  7062                           prodh	equ	0xFF4
  7063                           prodl	equ	0xFF3
  7064                           intcon	equ	0xFF2
  7065                           intcon2	equ	0xFF1
  7066                           postinc0	equ	0xFEE
  7067                           fsr0h	equ	0xFEA
  7068                           fsr0l	equ	0xFE9
  7069                           wreg	equ	0xFE8
  7070                           fsr1h	equ	0xFE2
  7071                           fsr1l	equ	0xFE1
  7072                           bsr	equ	0xFE0
  7073                           indf2	equ	0xFDF
  7074                           postinc2	equ	0xFDE
  7075                           postdec2	equ	0xFDD
  7076                           fsr2h	equ	0xFDA
  7077                           fsr2l	equ	0xFD9
  7078                           status	equ	0xFD8
  7079                           
  7080                           	psect	temp
  7081  00003F                     btemp:
  7082                           	opt stack 0
  7083  00003F                     	ds	1
  7084  0000                     int$flags	set	btemp
  7085                           pclatu	equ	0xFFB
  7086                           pclath	equ	0xFFA
  7087                           tblptru	equ	0xFF8
  7088                           tblptrh	equ	0xFF7
  7089                           tblptrl	equ	0xFF6
  7090                           tablat	equ	0xFF5
  7091                           prodh	equ	0xFF4
  7092                           prodl	equ	0xFF3
  7093                           intcon	equ	0xFF2
  7094                           intcon2	equ	0xFF1
  7095                           postinc0	equ	0xFEE
  7096                           fsr0h	equ	0xFEA
  7097                           fsr0l	equ	0xFE9
  7098                           wreg	equ	0xFE8
  7099                           fsr1h	equ	0xFE2
  7100                           fsr1l	equ	0xFE1
  7101                           bsr	equ	0xFE0
  7102                           indf2	equ	0xFDF
  7103                           postinc2	equ	0xFDE
  7104                           postdec2	equ	0xFDD
  7105                           fsr2h	equ	0xFDA
  7106                           fsr2l	equ	0xFD9
  7107                           status	equ	0xFD8


Data Sizes:
    Strings     0
    Constant    0
    Data        1
    BSS         64
    Persistent  0
    Stack       0

Auto Spaces:
    Space          Size  Autos    Used
    COMRAM           94     35      62
    BANK0           160     46      85
    BANK1           256      0       0
    BANK2           256      0       0
    BANK3           256      0       0
    BANK4           256      0       0
    BANK5           256      0       0
    BANK6           256      0       0
    BANK7           256      0       0
    BANK8           256      0       0
    BANK9           256      0       0
    BANK10          256      0       0
    BANK11          256      0       0
    BANK12          256      0       0

Pointer List with Targets:

    CANreceiveMessage@msg	PTR struct . size(2) Largest target is 15
		 -> msg(BANK0[15]), 

    CANsendMessage@data	PTR unsigned char  size(2) Largest target is 8
		 -> data(BANK0[8]), 


Critical Paths under _main in COMRAM

    None.

Critical Paths under _ISR_Alta in COMRAM

    _ISR_Alta->___lwdiv

Critical Paths under _ISR_Bassa in COMRAM

    _ISR_Bassa->_CANreceiveMessage

Critical Paths under _main in BANK0

    _configurazione->_CANInitialize
    _CANInitialize->_CANSetFilter
    _CANInitialize->_CANSetMask

Critical Paths under _ISR_Alta in BANK0

    _ISR_Alta->___lwdiv

Critical Paths under _ISR_Bassa in BANK0

    None.

Critical Paths under _main in BANK1

    None.

Critical Paths under _ISR_Alta in BANK1

    None.

Critical Paths under _ISR_Bassa in BANK1

    None.

Critical Paths under _main in BANK2

    None.

Critical Paths under _ISR_Alta in BANK2

    None.

Critical Paths under _ISR_Bassa in BANK2

    None.

Critical Paths under _main in BANK3

    None.

Critical Paths under _ISR_Alta in BANK3

    None.

Critical Paths under _ISR_Bassa in BANK3

    None.

Critical Paths under _main in BANK4

    None.

Critical Paths under _ISR_Alta in BANK4

    None.

Critical Paths under _ISR_Bassa in BANK4

    None.

Critical Paths under _main in BANK5

    None.

Critical Paths under _ISR_Alta in BANK5

    None.

Critical Paths under _ISR_Bassa in BANK5

    None.

Critical Paths under _main in BANK6

    None.

Critical Paths under _ISR_Alta in BANK6

    None.

Critical Paths under _ISR_Bassa in BANK6

    None.

Critical Paths under _main in BANK7

    None.

Critical Paths under _ISR_Alta in BANK7

    None.

Critical Paths under _ISR_Bassa in BANK7

    None.

Critical Paths under _main in BANK8

    None.

Critical Paths under _ISR_Alta in BANK8

    None.

Critical Paths under _ISR_Bassa in BANK8

    None.

Critical Paths under _main in BANK9

    None.

Critical Paths under _ISR_Alta in BANK9

    None.

Critical Paths under _ISR_Bassa in BANK9

    None.

Critical Paths under _main in BANK10

    None.

Critical Paths under _ISR_Alta in BANK10

    None.

Critical Paths under _ISR_Bassa in BANK10

    None.

Critical Paths under _main in BANK11

    None.

Critical Paths under _ISR_Alta in BANK11

    None.

Critical Paths under _ISR_Bassa in BANK11

    None.

Critical Paths under _main in BANK12

    None.

Critical Paths under _ISR_Alta in BANK12

    None.

Critical Paths under _ISR_Bassa in BANK12

    None.

Call Graph Tables:

 ---------------------------------------------------------------------------------
 (Depth) Function   	        Calls       Base Space   Used Autos Params    Refs
 ---------------------------------------------------------------------------------
 (0) _main                                                 0     0      0    8609
                       _CANisTxReady
                     _CANsendMessage
                     _configurazione
 ---------------------------------------------------------------------------------
 (1) _configurazione                                       0     0      0    5934
                      _CANInitialize
 ---------------------------------------------------------------------------------
 (2) _CANInitialize                                       12     7      5    5934
                                             34 BANK0     12     7      5
                   _CANOperationMode
                       _CANSetFilter
                         _CANSetMask
 ---------------------------------------------------------------------------------
 (3) _CANSetMask                                          14     9      5    1286
                                             20 BANK0     14     9      5
 ---------------------------------------------------------------------------------
 (3) _CANSetFilter                                        14     9      5    3858
                                             20 BANK0     14     9      5
 ---------------------------------------------------------------------------------
 (3) _CANOperationMode                                     1     1      0      44
                                             20 BANK0      1     1      0
 ---------------------------------------------------------------------------------
 (1) _CANsendMessage                                      16     8      8    2651
                                             20 BANK0     16     8      8
 ---------------------------------------------------------------------------------
 (1) _CANisTxReady                                         1     1      0      24
                                             20 BANK0      1     1      0
 ---------------------------------------------------------------------------------
 Estimated maximum stack depth 3
 ---------------------------------------------------------------------------------
 (Depth) Function   	        Calls       Base Space   Used Autos Params    Refs
 ---------------------------------------------------------------------------------
 (4) _ISR_Bassa                                           20    20      0    1185
                                             12 COMRAM    20    20      0
                       _CANisRxReady
                  _CANreceiveMessage
 ---------------------------------------------------------------------------------
 (5) _CANreceiveMessage                                   12    10      2    1137
                                              0 COMRAM    12    10      2
 ---------------------------------------------------------------------------------
 (5) _CANisRxReady                                         1     1      0      24
                                              0 COMRAM     1     1      0
 ---------------------------------------------------------------------------------
 Estimated maximum stack depth 5
 ---------------------------------------------------------------------------------
 (Depth) Function   	        Calls       Base Space   Used Autos Params    Refs
 ---------------------------------------------------------------------------------
 (6) _ISR_Alta                                            16    16      0     395
                                              4 BANK0     16    16      0
                            ___lwdiv
 ---------------------------------------------------------------------------------
 (7) ___lwdiv                                              7     3      4     395
                                             32 COMRAM     3     3      0
                                              0 BANK0      4     0      4
 ---------------------------------------------------------------------------------
 Estimated maximum stack depth 7
 ---------------------------------------------------------------------------------

 Call Graph Graphs:

 _main (ROOT)
   _CANisTxReady
   _CANsendMessage
   _configurazione
     _CANInitialize
       _CANOperationMode
       _CANSetFilter
       _CANSetMask

 _ISR_Bassa (ROOT)
   _CANisRxReady
   _CANreceiveMessage

 _ISR_Alta (ROOT)
   ___lwdiv

 Address spaces:
Name               Size   Autos  Total    Cost      Usage
BIGRAM             CFF      0       0      31        0.0%
EEDATA             400      0       0       0        0.0%
BITBANK12          100      0       0      29        0.0%
BANK12             100      0       0      30        0.0%
BITBANK11          100      0       0      27        0.0%
BANK11             100      0       0      28        0.0%
BITBANK10          100      0       0      25        0.0%
BANK10             100      0       0      26        0.0%
BITBANK9           100      0       0      23        0.0%
BANK9              100      0       0      24        0.0%
BITBANK8           100      0       0      21        0.0%
BANK8              100      0       0      22        0.0%
BITBANK7           100      0       0      18        0.0%
BANK7              100      0       0      19        0.0%
BITBANK6           100      0       0      16        0.0%
BANK6              100      0       0      17        0.0%
BITBANK5           100      0       0      14        0.0%
BANK5              100      0       0      15        0.0%
BITBANK4           100      0       0      12        0.0%
BANK4              100      0       0      13        0.0%
BITBANK3           100      0       0      10        0.0%
BANK3              100      0       0      11        0.0%
BITBANK2           100      0       0       8        0.0%
BANK2              100      0       0       9        0.0%
BITBANK1           100      0       0       6        0.0%
BANK1              100      0       0       7        0.0%
BITBANK0            A0      0       0       4        0.0%
BANK0               A0     2E      55       5       53.1%
BITCOMRAM           5E      0       1       0        1.1%
COMRAM              5E     23      3E       1       66.0%
BITSFR_3             0      0       0      40        0.0%
SFR_3                0      0       0      40        0.0%
BITSFR_2             0      0       0      40        0.0%
SFR_2                0      0       0      40        0.0%
BITSFR_1             0      0       0      40        0.0%
SFR_1                0      0       0      40        0.0%
BITSFR               0      0       0      40        0.0%
SFR                  0      0       0      40        0.0%
STACK                0      0       0       2        0.0%
NULL                 0      0       0       0        0.0%
ABS                  0      0      93      20        0.0%
DATA                 0      0      93       3        0.0%
CODE                 0      0       0       0        0.0%


Microchip Technology PIC18 Macro Assembler V1.35 build -356382666 
Symbol Table                                                                                   Sun Apr 10 20:55:42 2016

        __end_of_CANSetFilter 0C80                            bsr 000FE0                   __CFG_BORV$3 000000  
                __CFG_CP0$OFF 000000                  __CFG_CP1$OFF 000000                  __CFG_CP2$OFF 000000  
                __CFG_CP3$OFF 000000                   __CFG_OSC$HS 000000                    _MUX_select 0024  
                         l410 1B22                           l411 1B26                           l340 0C96  
                         l500 0C24                           l420 1C2E                           l412 1B32  
                         l341 0C9A                           l501 0C28                           l421 1C3A  
                         l413 1B36                           l350 0E54                           l342 0D92  
                         l502 0C34                           l422 1C3E                           l414 1B42  
                         l334 1D72                           l351 0E60                           l343 0D22  
                         l423 1C4A                           l415 1B46                           l335 1D7C  
                         l360 0FBA                           l344 0D2C                           l440 066E  
                         l424 1C4E                           l416 1B52                           l408 1B12  
                         l361 0FC4                           l345 0D36                           l441 067A  
                         l425 1C5A                           l409 1B16                           l370 11A2  
                         l354 1188                           l346 0D40                           l450 0784  
                         l442 067E                           l426 1C5E                           l371 129A  
                         l355 0F1A                           l339 0F04                           l451 0788  
                         l443 068A                           l427 1C6A                           l419 1C2A  
                         l532 2160                           l380 1368                           l372 122A  
                         l364 10D4                           l356 0F1E                           l452 0794  
                         l444 068E                           l373 1234                           l365 10D8  
                         l357 1016                           l349 0E50                           l461 08A0  
                         l453 0798                           l445 069A                           l374 123E  
                         l366 10E4                           l358 0FA6                           l462 08A4  
                         l454 07A4                           l446 069E                           l375 1248  
                         l359 0FB0                           l463 08B0                           l455 07A8  
                         l447 06AA                           l439 066A                           l480 09FC  
                         l472 09BC                           l464 08B4                           l456 07B4  
                         l369 119E                           l473 09C0                           l465 08C0  
                         l457 07B8                           l378 1358                           l490 0B0C  
                         l474 09CC                           l466 08C4                           l458 07C4  
                         l379 135C                           l491 0B18                           l483 0AD8  
                         l475 09D0                           l467 08D0                           l484 0ADC  
                         l476 09DC                           l468 08D4                           l485 0AE8  
                         l477 09E0                           l469 08E0                           l494 0BF4  
                         l486 0AEC                           l478 09EC                           l495 0BF8  
                         l487 0AF8                           l479 09F0                           l496 0C04  
                         l488 0AFC                           l497 0C08                           l489 0B08  
                         l498 0C14                           l499 0C18                  __CFG_CPB$OFF 000000  
                __CFG_CPD$OFF 000000                           _msg 009E                           prod 000FF3  
                         wreg 000FE8               ?_configurazione 0001                  __CFG_LVP$OFF 000000  
                __CFG_WDT$OFF 000000                          l3002 1252                          l3022 134C  
                        l3028 136C                          l2422 1B9C                          l2416 1B56  
                        l3400 202E                          l2356 216E                          l2508 03AA  
                        l2630 080E                          l2526 0464                          l2390 1A86  
                        l2374 19D0                          l2624 07C8                          l2544 051E  
                        l2472 0238                          l2448 1C6E                          l2562 05D8  
                        l2490 02F0                          l2810 1D88                          l3370 1F88  
                        l2732 0B62                          l2812 1DCC                          l2804 1D6A  
                        l3372 1F8C                          l2726 0B1C                          l2590 06AE  
                        l2806 1D80                          l2760 0C38                          l2664 092A  
                        l3392 1FF2                          l2850 0D4A                          l2658 08E4  
                        l3378 1FA2                          l3386 1FDE                          l2692 0A00  
                        l2596 06F4                          l2926 0FCE                          l2870 0E44  
                        l2952 10E8                          l2946 10C8                          l2698 0A46  
                        l2876 0E64                          u3000 0D6A                          u3010 0DB6  
                        u2300 03E0                          u2220 026C                          u3005 0D5E  
                        _LATA 000F89                          u2150 1C8E                          u2070 1B76  
                        _LATB 000F8A                          u3015 0DAA                          _LATC 000F8B  
                        u3025 0E16                          u2305 03D4                          u2225 0260  
                        u3130 0FEE                          u2315 0440                          u2235 02CC  
                        u2155 1C82                          u2075 1B6A                          u3140 103A  
                        u2340 049A                          u2260 0326                          u2180 01B4  
                        u3135 0FE2                          u3145 102E                          u2345 048E  
                        u2265 031A                          u2185 01A8                          u3155 109A  
                        u2355 04FA                          u2275 0386                          u2195 0214  
                        u3260 1272                          u2380 0554                          u3270 12BE  
                        u2710 0A20                          u2630 0904                          u2550 07E8  
                        u2470 06CE                          u3265 1266                          u2385 0548  
                        u3275 12B2                          u2715 0A14                          u2635 08F8  
                        u2555 07DC                          u2475 06C2                          u2395 05B4  
                        u1940 194C                          u3285 131E                          u3720 1F9C  
                        u1945 1940                          u1955 19AC                          u1980 1A02  
                        u2870 0C58                          u2790 0B3C                          u1985 19F6  
                        u2875 0C4C                          u2795 0B30                          u1995 1A62  
         __size_of_CANSetMask 039E                          _data 00AD                          _main 1F5C  
                        _asus 003B                          fsr0h 000FEA                          fsr1h 000FE2  
                        fsr0l 000FE9                          fsr2h 000FDA                          fsr1l 000FE1  
                        indf2 000FDF                          fsr2l 000FD9                          btemp 003F  
                        pclat 000FFA                          prodh 000FF4                          prodl 000FF3  
                        start 0176                 __CFG_IESO$OFF 000000                 __CFG_MCLRE$ON 000000  
                ___param_bank 000010              _CANOperationMode 2166    __size_of_CANreceiveMessage 050C  
                       ?_main 0001                         _T0CON 000FD5                         _T3CON 000FB1  
          __size_of_ISR_Bassa 015E               __end_of___lwdiv 20A0                         i1l600 009E  
                       i1l604 00FE                         i1l605 012E                         i1l537 218E  
                       i1l386 16A4                         i2l590 1EBE                         _TMR0H 000FD7  
                       _TMR0L 000FD6                         _TMR3H 000FB3                         _TMR3L 000FB2  
                       _PORTA 000F80             _CANisRxReady$2724 0001                         _TRISA 000F92  
                       _TRISB 000F93                         _TRISC 000F94                 __CFG_PWRT$OFF 000000  
            __end_of_ISR_Alta 1F5C                 __CFG_WRT0$OFF 000000                 __CFG_WRT1$OFF 000000  
               __CFG_WRT2$OFF 000000                 __CFG_WRT3$OFF 000000                __CFG_EBTR0$OFF 000000  
              __CFG_FCMEN$OFF 000000                __CFG_EBTR1$OFF 000000            CANInitialize@flags 0086  
              __CFG_EBTR2$OFF 000000                __CFG_EBTR3$OFF 000000                 __CFG_WRTB$OFF 000000  
               __CFG_WRTC$OFF 000000                 __CFG_WRTD$OFF 000000                __CFG_EBTRB$OFF 000000  
              __pbitbssCOMRAM 01E8          __end_of_CANisRxReady 2192                         tablat 000FF5  
        __end_of_CANisTxReady 2166                         status 000FD8               __initialization 2108  
                __end_of_main 2034                        ??_main 008E                 __activetblptr 000002  
           _CANisTxReady$2722 0074                        _ADCON1 000FC1                        _CANCON 000F6F  
             __CFG_BBSIZ$1024 000000                        i1l3100 15F4                        i1l3112 164E  
                      i1l3104 1612                        i1l3116 166C                        i1l3108 1630  
                      i1l3300 00A0                        i1l3118 169E                        i1l3312 00E2  
                      i1l3170 18AA                        i1l3162 1872                        i1l3154 1804  
                      i1l3180 1914                        i1l3092 1584                        i1l3308 00DE  
                      i1l3174 18C6                        i1l3166 188E                        i1l3178 18E2  
                      i1l3290 0066                        i2l1029 2096                        i2l3430 2058  
                      i2l3440 208A                        i2l3432 205E                        i2l3428 204E  
                      i2l3458 1F1E                        _RXB0D0 000F66                        _RXB0D1 000F67  
                      _RXB0D2 000F68                        _RXB0D3 000F69                        _RXB0D4 000F6A  
                      _RXB1D0 000F56                        _RXB0D5 000F6B                        _RXB1D1 000F57  
                      _RXB0D6 000F6C                        _RXB1D2 000F58                        _RXB0D7 000F6D  
                      _RXB1D3 000F59                        _RXB1D4 000F5A                        _RXB1D5 000F5B  
                      _RXB1D6 000F5C                        _RXB1D7 000F5D                        _TXB0D0 000F46  
                      _TXB0D1 000F47                        _TXB0D2 000F48                        _TXB0D3 000F49  
                      _TXB1D0 000F36                        _TXB0D4 000F4A                        _TXB1D1 000F37  
                      _TXB0D5 000F4B                        _TXB1D2 000F38                        _TXB0D6 000F4C  
                      _TXB1D3 000F39                        _TXB0D7 000F4D                        _TXB2D0 000F26  
                      _TXB1D4 000F3A                        _TXB2D1 000F27                        _TXB1D5 000F3B  
                      _TXB2D2 000F28                        _TXB1D6 000F3C                        _TXB2D3 000F29  
                      _TXB1D7 000F3D                        _TXB2D4 000F2A                        _TXB2D5 000F2B  
                      _TXB2D6 000F2C                        _TXB2D7 000F2D            CANsendMessage@data 0078  
          CANsendMessage@tamp 0080             __end_of_ISR_Bassa 0176         __size_of_CANSetFilter 0B06  
              __CFG_XINST$OFF 000000                __CFG_STVREN$ON 000000                     ??___lwdiv 0021  
                ??_CANSetMask 0079                        _gianni 003C                        clear_0 210E  
                      clear_1 211C               __CFG_BOREN$BOHW 000000                  __pdataCOMRAM 003E  
                      tblptrh 000FF7                        tblptrl 000FF6                        tblptru 000FF8  
                _CANSetFilter 017A                    __accesstop 0060       __end_of__initialization 2134  
          __end_of_CANSetMask 1CB6               __CFG_PBADEN$OFF 000000                 ___rparam_used 000001  
              __pcstackCOMRAM 0001                     ?_ISR_Alta 0001              ??_configurazione 008E  
       CANSetFilter@numBuffer 007D         __size_of_CANisRxReady 0016         __size_of_CANisTxReady 0024  
    __end_of_CANOperationMode 217C                    __pbssBANK0 008E               _sensor_distance 008E  
               ISR_Bassa@gigi 0020       __size_of_CANsendMessage 078C                    _activation 01E8  
                  ??_ISR_Alta 0064                  _CANisRxReady 217C                       _CANSTAT 000F6E  
                _CANisTxReady 2142                       _BRGCON1 000F70                       _BRGCON2 000F71  
                     _BRGCON3 000F72        __size_of_CANInitialize 01C6                       _RXB0DLC 000F65  
                     _RXB1DLC 000F55                       _RXB0CON 000F60                       _RXB1CON 000F50  
                     _TXB0DLC 000F45                       _TXB1DLC 000F35                       _TXB2DLC 000F25  
         CANsendMessage@flags 007B                       __Hparam 0000                       __Lparam 0000  
                     ___lwdiv 2034          CANInitialize@propSeg 008B                       __pcinit 2108  
                     __ramtop 0D00                       __ptext0 1F5C                       __ptext1 20A0  
                     __ptext2 1CB6                       __ptext3 1918                       __ptext4 017A  
                     __ptext5 2166                       __ptext6 0C80                       __ptext7 2142  
                     __ptext9 140C        CANreceiveMessage@error 000B                __pintcode_body 1E7C  
        end_of_initialization 2134                 __Lmediumconst 0000                       int_func 1E7C  
               _CANInitialize 1CB6                     _ISR_Bassa 0018                       postdec2 000FDD  
                     postinc0 000FEE                       postinc2 000FDE                    _timerValue 0036  
                   _PORTBbits 000F81                CANSetMask@mask 0074                CANSetMask@tamp 007E  
              CANSetMask@type 0078                     _TRISBbits 000F93                     _MUX_index 003A  
                  _pulse_time 0034       _clock_counter_reference 002C                _CANsendMessage 0C80  
            CANInitialize@BRP 0085              CANInitialize@SJW 0084                ?_CANInitialize 0082  
                  ?_ISR_Bassa 0001             __size_of_ISR_Alta 1F54                 __pidataCOMRAM 2192  
         start_initialization 2108           CANSetMask@numBuffer 007D        __end_of_CANsendMessage 140C  
           ?_CANOperationMode 0001            ??_CANOperationMode 0074    CANInitialize@FilterConfig1 008C  
  CANInitialize@FilterConfig2 008D              __CFG_LPT1OSC$OFF 000000        CANInitialize@phaseSeg1 0082  
      CANInitialize@phaseSeg2 0083                   __pbssCOMRAM 0024                 __pcstackBANK0 0060  
                 _BRGCON2bits 000F71                   _BRGCON3bits 000F72               ?_CANsendMessage 0074  
             ??_CANInitialize 0087            CANSetFilter@filter 0074              ___lwdiv@dividend 0060  
                 ??_ISR_Bassa 000D                     __pintcode 0008                      ?___lwdiv 0060  
                 __pintcodelo 0018                   _COMSTATbits 000F74              ___lwdiv@quotient 0022  
     __size_of_configurazione 0068         CANreceiveMessage@tamp 000C                      _LATBbits 000F8A  
_delay_quartz_frequency_value 003E                      _IPR3bits 000FA5                      i1u334_20 14C4  
                    i1u334_26 14C6                      i1u335_20 14F2                      i1u343_25 1678  
                    i1u335_26 14F4                      i1u345_20 174C                      i1u337_25 1508  
                    i1u345_26 174E                      i1u346_20 1776                      i1u354_25 18EE  
                    i1u346_26 1778                      i1u348_25 178A                      i1u383_27 0120  
                    _PIR3bits 000FA4                      _RXB0EIDH 000F63                      _RXB0EIDL 000F64  
                    _RXB1EIDH 000F53                      _RXB1EIDL 000F54                      _ISR_Alta 0008  
                    _RCONbits 000FD0              __CFG_WDTPS$32768 000000                      _RXB0SIDH 000F61  
                    _RXB0SIDL 000F62                      _RXF0EIDH 000F02                      _RXB1SIDH 000F51  
                    _RXF0EIDL 000F03                      _RXB1SIDL 000F52                      _RXF1EIDH 000F06  
                    _RXF1EIDL 000F07                      _RXF2EIDH 000F0A                      _RXF2EIDL 000F0B  
                    _RXF3EIDH 000F0E                      _RXF3EIDL 000F0F                      _RXF4EIDH 000F12  
                    _RXF4EIDL 000F13                      _RXF5EIDH 000F16                      _RXF5EIDL 000F17  
                    _RXF0SIDH 000F00                      _RXF0SIDL 000F01                      _TXB0EIDH 000F43  
                    _RXF1SIDH 000F04                      _TXB0EIDL 000F44                      _RXF1SIDL 000F05  
                    _TXB1EIDH 000F33                      _RXF2SIDH 000F08                      _TXB1EIDL 000F34  
                    _RXF2SIDL 000F09                      _TXB2EIDH 000F23                      _RXF3SIDH 000F0C  
                    _TXB2EIDL 000F24                      _RXF3SIDL 000F0D                      _RXF4SIDH 000F10  
                    _RXF4SIDL 000F11                      _RXF5SIDH 000F14                      _RXF5SIDL 000F15  
                    _RXM0EIDH 000F1A                      _RXM0EIDL 000F1B                      _TXB0SIDH 000F41  
                    _RXM1EIDH 000F1E                      _TXB0SIDL 000F42                      _RXM1EIDL 000F1F  
                    _TXB1SIDH 000F31                      _TXB1SIDL 000F32                      _TXB2SIDH 000F21  
                    _TXB2SIDL 000F22                      _RXM0SIDH 000F18                      _RXM0SIDL 000F19  
                    _RXM1SIDH 000F1C                      _RXM1SIDL 000F1D                   _distance_dx 0030  
                 _distance_sx 0032                      _RXERRCNT 000F75                      _TXERRCNT 000F76  
               ?_CANSetFilter 0074                   _INTCON2bits 000FF1                    _CANCONbits 000F6F  
                    __Hrparam 0000                  _RXB0SIDLbits 000F62                      __Lrparam 0000  
                _RXB1SIDLbits 000F52                    _CANSetMask 1918              __size_of___lwdiv 006C  
                _RXF0SIDLbits 000F01               ___lwdiv@divisor 0062                  _RXF1SIDLbits 000F05  
             ___lwdiv@counter 0021                ??_CANSetFilter 0079                      __ptext10 217C  
                    __ptext12 2034                  _RXF2SIDLbits 000F09                  _RXF3SIDLbits 000F0D  
                    _distance 002E                  _RXF4SIDLbits 000F11                  _RXF5SIDLbits 000F15  
    CANsendMessage@dataLength 007A                 __size_of_main 00D8          CANreceiveMessage@msg 0001  
                _TXB0SIDLbits 000F42                  _TXB1SIDLbits 000F32                  _TXB2SIDLbits 000F22  
                    int$flags 003F     __size_of_CANOperationMode 0016                 ?_CANisRxReady 0001  
               ?_CANisTxReady 0001                   _RXB0DLCbits 000F65                   _RXB1DLCbits 000F55  
                _RXM0SIDLbits 000F19                   _RXB0CONbits 000F60                   _RXB1CONbits 000F50  
           _CANreceiveMessage 140C                  _RXM1SIDLbits 000F1D                    _INTCONbits 000FF2  
            ??_CANsendMessage 007C            ?_CANreceiveMessage 0001                  _request_sent 01E9  
              _configurazione 20A0      CANsendMessage@identifier 0074                      intlevel1 0000  
                    intlevel2 0000              CANSetFilter@tamp 007E              CANSetFilter@type 0078  
         ??_CANreceiveMessage 0003                   _TXB0DLCbits 000F45                   _TXB1DLCbits 000F35  
                 _TXB0CONbits 000F40                   _TXB2DLCbits 000F25                   _TXB1CONbits 000F30  
                 _TXB2CONbits 000F20          CANOperationMode@mode 0074                ??_CANisRxReady 0001  
                 ?_CANSetMask 0074                ??_CANisTxReady 0074     __end_of_CANreceiveMessage 1918  
                 _timerValue2 0038        __end_of_configurazione 2108         __end_of_CANInitialize 1E7C  
